	.file	"main.cpp"
	.text
	.section	.text._ZnwmPv,"axG",@progbits,_ZnwmPv,comdat
	.weak	_ZnwmPv
	.type	_ZnwmPv, @function
_ZnwmPv:
.LFB285:
	.cfi_startproc
	pushq	%rbp
	.cfi_def_cfa_offset 16
	.cfi_offset 6, -16
	movq	%rsp, %rbp
	.cfi_def_cfa_register 6
	movq	%rdi, -8(%rbp)
	movq	%rsi, -16(%rbp)
	movq	-16(%rbp), %rax
	popq	%rbp
	.cfi_def_cfa 7, 8
	ret
	.cfi_endproc
.LFE285:
	.size	_ZnwmPv, .-_ZnwmPv
	.section	.rodata
	.type	_ZStL19piecewise_construct, @object
	.size	_ZStL19piecewise_construct, 1
_ZStL19piecewise_construct:
	.zero	1
	.type	_ZStL13allocator_arg, @object
	.size	_ZStL13allocator_arg, 1
_ZStL13allocator_arg:
	.zero	1
	.type	_ZStL6ignore, @object
	.size	_ZStL6ignore, 1
_ZStL6ignore:
	.zero	1
	.local	_ZStL8__ioinit
	.comm	_ZStL8__ioinit,1,1
	.align 4
	.type	_ZN9__gnu_cxxL21__default_lock_policyE, @object
	.size	_ZN9__gnu_cxxL21__default_lock_policyE, 4
_ZN9__gnu_cxxL21__default_lock_policyE:
	.long	2
	.section	.text._ZNKSt6chrono8durationIlSt5ratioILl1ELl1000000000EEE5countEv,"axG",@progbits,_ZNKSt6chrono8durationIlSt5ratioILl1ELl1000000000EEE5countEv,comdat
	.align 2
	.weak	_ZNKSt6chrono8durationIlSt5ratioILl1ELl1000000000EEE5countEv
	.type	_ZNKSt6chrono8durationIlSt5ratioILl1ELl1000000000EEE5countEv, @function
_ZNKSt6chrono8durationIlSt5ratioILl1ELl1000000000EEE5countEv:
.LFB5966:
	.cfi_startproc
	pushq	%rbp
	.cfi_def_cfa_offset 16
	.cfi_offset 6, -16
	movq	%rsp, %rbp
	.cfi_def_cfa_register 6
	movq	%rdi, -8(%rbp)
	movq	-8(%rbp), %rax
	movq	(%rax), %rax
	popq	%rbp
	.cfi_def_cfa 7, 8
	ret
	.cfi_endproc
.LFE5966:
	.size	_ZNKSt6chrono8durationIlSt5ratioILl1ELl1000000000EEE5countEv, .-_ZNKSt6chrono8durationIlSt5ratioILl1ELl1000000000EEE5countEv
	.section	.text._ZNKSt6chrono10time_pointINS_3_V212system_clockENS_8durationIlSt5ratioILl1ELl1000000000EEEEE16time_since_epochEv,"axG",@progbits,_ZNKSt6chrono10time_pointINS_3_V212system_clockENS_8durationIlSt5ratioILl1ELl1000000000EEEEE16time_since_epochEv,comdat
	.align 2
	.weak	_ZNKSt6chrono10time_pointINS_3_V212system_clockENS_8durationIlSt5ratioILl1ELl1000000000EEEEE16time_since_epochEv
	.type	_ZNKSt6chrono10time_pointINS_3_V212system_clockENS_8durationIlSt5ratioILl1ELl1000000000EEEEE16time_since_epochEv, @function
_ZNKSt6chrono10time_pointINS_3_V212system_clockENS_8durationIlSt5ratioILl1ELl1000000000EEEEE16time_since_epochEv:
.LFB5968:
	.cfi_startproc
	pushq	%rbp
	.cfi_def_cfa_offset 16
	.cfi_offset 6, -16
	movq	%rsp, %rbp
	.cfi_def_cfa_register 6
	movq	%rdi, -8(%rbp)
	movq	-8(%rbp), %rax
	movq	(%rax), %rax
	popq	%rbp
	.cfi_def_cfa 7, 8
	ret
	.cfi_endproc
.LFE5968:
	.size	_ZNKSt6chrono10time_pointINS_3_V212system_clockENS_8durationIlSt5ratioILl1ELl1000000000EEEEE16time_since_epochEv, .-_ZNKSt6chrono10time_pointINS_3_V212system_clockENS_8durationIlSt5ratioILl1ELl1000000000EEEEE16time_since_epochEv
	.section	.text._ZNSt6chrono8durationIlSt5ratioILl1ELl1EEEC1IlvEERKT_,"axG",@progbits,_ZNSt6chrono8durationIlSt5ratioILl1ELl1EEEC1IlvEERKT_,comdat
	.align 2
	.weak	_ZNSt6chrono8durationIlSt5ratioILl1ELl1EEEC1IlvEERKT_
	.type	_ZNSt6chrono8durationIlSt5ratioILl1ELl1EEEC1IlvEERKT_, @function
_ZNSt6chrono8durationIlSt5ratioILl1ELl1EEEC1IlvEERKT_:
.LFB5973:
	.cfi_startproc
	pushq	%rbp
	.cfi_def_cfa_offset 16
	.cfi_offset 6, -16
	movq	%rsp, %rbp
	.cfi_def_cfa_register 6
	movq	%rdi, -8(%rbp)
	movq	%rsi, -16(%rbp)
	movq	-16(%rbp), %rax
	movq	(%rax), %rdx
	movq	-8(%rbp), %rax
	movq	%rdx, (%rax)
	nop
	popq	%rbp
	.cfi_def_cfa 7, 8
	ret
	.cfi_endproc
.LFE5973:
	.size	_ZNSt6chrono8durationIlSt5ratioILl1ELl1EEEC1IlvEERKT_, .-_ZNSt6chrono8durationIlSt5ratioILl1ELl1EEEC1IlvEERKT_
	.section	.text._ZNSt6chrono20__duration_cast_implINS_8durationIlSt5ratioILl1ELl1EEEES2_ILl1ELl1000000000EElLb1ELb0EE6__castIlS5_EES4_RKNS1_IT_T0_EE,"axG",@progbits,_ZNSt6chrono20__duration_cast_implINS_8durationIlSt5ratioILl1ELl1EEEES2_ILl1ELl1000000000EElLb1ELb0EE6__castIlS5_EES4_RKNS1_IT_T0_EE,comdat
	.weak	_ZNSt6chrono20__duration_cast_implINS_8durationIlSt5ratioILl1ELl1EEEES2_ILl1ELl1000000000EElLb1ELb0EE6__castIlS5_EES4_RKNS1_IT_T0_EE
	.type	_ZNSt6chrono20__duration_cast_implINS_8durationIlSt5ratioILl1ELl1EEEES2_ILl1ELl1000000000EElLb1ELb0EE6__castIlS5_EES4_RKNS1_IT_T0_EE, @function
_ZNSt6chrono20__duration_cast_implINS_8durationIlSt5ratioILl1ELl1EEEES2_ILl1ELl1000000000EElLb1ELb0EE6__castIlS5_EES4_RKNS1_IT_T0_EE:
.LFB5970:
	.cfi_startproc
	pushq	%rbp
	.cfi_def_cfa_offset 16
	.cfi_offset 6, -16
	movq	%rsp, %rbp
	.cfi_def_cfa_register 6
	subq	$48, %rsp
	movq	%rdi, -40(%rbp)
	movq	%fs:40, %rax
	movq	%rax, -8(%rbp)
	xorl	%eax, %eax
	movq	-40(%rbp), %rax
	movq	%rax, %rdi
	call	_ZNKSt6chrono8durationIlSt5ratioILl1ELl1000000000EEE5countEv
	movq	%rax, %rcx
	movabsq	$1237940039285380275, %rdx
	movq	%rcx, %rax
	imulq	%rdx
	sarq	$26, %rdx
	movq	%rcx, %rax
	sarq	$63, %rax
	subq	%rax, %rdx
	movq	%rdx, %rax
	movq	%rax, -24(%rbp)
	leaq	-24(%rbp), %rdx
	leaq	-16(%rbp), %rax
	movq	%rdx, %rsi
	movq	%rax, %rdi
	call	_ZNSt6chrono8durationIlSt5ratioILl1ELl1EEEC1IlvEERKT_
	movq	-16(%rbp), %rax
	movq	-8(%rbp), %rsi
	xorq	%fs:40, %rsi
	je	.L10
	call	__stack_chk_fail@PLT
.L10:
	leave
	.cfi_def_cfa 7, 8
	ret
	.cfi_endproc
.LFE5970:
	.size	_ZNSt6chrono20__duration_cast_implINS_8durationIlSt5ratioILl1ELl1EEEES2_ILl1ELl1000000000EElLb1ELb0EE6__castIlS5_EES4_RKNS1_IT_T0_EE, .-_ZNSt6chrono20__duration_cast_implINS_8durationIlSt5ratioILl1ELl1EEEES2_ILl1ELl1000000000EElLb1ELb0EE6__castIlS5_EES4_RKNS1_IT_T0_EE
	.section	.text._ZNSt6chrono13duration_castINS_8durationIlSt5ratioILl1ELl1EEEElS2_ILl1ELl1000000000EEEENSt9enable_ifIXsrNS_13__is_durationIT_EE5valueES8_E4typeERKNS1_IT0_T1_EE,"axG",@progbits,_ZNSt6chrono13duration_castINS_8durationIlSt5ratioILl1ELl1EEEElS2_ILl1ELl1000000000EEEENSt9enable_ifIXsrNS_13__is_durationIT_EE5valueES8_E4typeERKNS1_IT0_T1_EE,comdat
	.weak	_ZNSt6chrono13duration_castINS_8durationIlSt5ratioILl1ELl1EEEElS2_ILl1ELl1000000000EEEENSt9enable_ifIXsrNS_13__is_durationIT_EE5valueES8_E4typeERKNS1_IT0_T1_EE
	.type	_ZNSt6chrono13duration_castINS_8durationIlSt5ratioILl1ELl1EEEElS2_ILl1ELl1000000000EEEENSt9enable_ifIXsrNS_13__is_durationIT_EE5valueES8_E4typeERKNS1_IT0_T1_EE, @function
_ZNSt6chrono13duration_castINS_8durationIlSt5ratioILl1ELl1EEEElS2_ILl1ELl1000000000EEEENSt9enable_ifIXsrNS_13__is_durationIT_EE5valueES8_E4typeERKNS1_IT0_T1_EE:
.LFB5969:
	.cfi_startproc
	pushq	%rbp
	.cfi_def_cfa_offset 16
	.cfi_offset 6, -16
	movq	%rsp, %rbp
	.cfi_def_cfa_register 6
	subq	$16, %rsp
	movq	%rdi, -8(%rbp)
	movq	-8(%rbp), %rax
	movq	%rax, %rdi
	call	_ZNSt6chrono20__duration_cast_implINS_8durationIlSt5ratioILl1ELl1EEEES2_ILl1ELl1000000000EElLb1ELb0EE6__castIlS5_EES4_RKNS1_IT_T0_EE
	leave
	.cfi_def_cfa 7, 8
	ret
	.cfi_endproc
.LFE5969:
	.size	_ZNSt6chrono13duration_castINS_8durationIlSt5ratioILl1ELl1EEEElS2_ILl1ELl1000000000EEEENSt9enable_ifIXsrNS_13__is_durationIT_EE5valueES8_E4typeERKNS1_IT0_T1_EE, .-_ZNSt6chrono13duration_castINS_8durationIlSt5ratioILl1ELl1EEEElS2_ILl1ELl1000000000EEEENSt9enable_ifIXsrNS_13__is_durationIT_EE5valueES8_E4typeERKNS1_IT0_T1_EE
	.section	.text._ZNSt6chrono3_V212system_clock9to_time_tERKNS_10time_pointIS1_NS_8durationIlSt5ratioILl1ELl1000000000EEEEEE,"axG",@progbits,_ZNSt6chrono3_V212system_clock9to_time_tERKNS_10time_pointIS1_NS_8durationIlSt5ratioILl1ELl1000000000EEEEEE,comdat
	.weak	_ZNSt6chrono3_V212system_clock9to_time_tERKNS_10time_pointIS1_NS_8durationIlSt5ratioILl1ELl1000000000EEEEEE
	.type	_ZNSt6chrono3_V212system_clock9to_time_tERKNS_10time_pointIS1_NS_8durationIlSt5ratioILl1ELl1000000000EEEEEE, @function
_ZNSt6chrono3_V212system_clock9to_time_tERKNS_10time_pointIS1_NS_8durationIlSt5ratioILl1ELl1000000000EEEEEE:
.LFB5967:
	.cfi_startproc
	pushq	%rbp
	.cfi_def_cfa_offset 16
	.cfi_offset 6, -16
	movq	%rsp, %rbp
	.cfi_def_cfa_register 6
	subq	$48, %rsp
	movq	%rdi, -40(%rbp)
	movq	%fs:40, %rax
	movq	%rax, -8(%rbp)
	xorl	%eax, %eax
	movq	-40(%rbp), %rax
	movq	%rax, %rdi
	call	_ZNKSt6chrono10time_pointINS_3_V212system_clockENS_8durationIlSt5ratioILl1ELl1000000000EEEEE16time_since_epochEv
	movq	%rax, -24(%rbp)
	leaq	-24(%rbp), %rax
	movq	%rax, %rdi
	call	_ZNSt6chrono13duration_castINS_8durationIlSt5ratioILl1ELl1EEEElS2_ILl1ELl1000000000EEEENSt9enable_ifIXsrNS_13__is_durationIT_EE5valueES8_E4typeERKNS1_IT0_T1_EE
	movq	%rax, -16(%rbp)
	leaq	-16(%rbp), %rax
	movq	%rax, %rdi
	call	_ZNKSt6chrono8durationIlSt5ratioILl1ELl1EEE5countEv
	movq	-8(%rbp), %rdx
	xorq	%fs:40, %rdx
	je	.L15
	call	__stack_chk_fail@PLT
.L15:
	leave
	.cfi_def_cfa 7, 8
	ret
	.cfi_endproc
.LFE5967:
	.size	_ZNSt6chrono3_V212system_clock9to_time_tERKNS_10time_pointIS1_NS_8durationIlSt5ratioILl1ELl1000000000EEEEEE, .-_ZNSt6chrono3_V212system_clock9to_time_tERKNS_10time_pointIS1_NS_8durationIlSt5ratioILl1ELl1000000000EEEEEE
	.section	.text._ZNKSt6chrono8durationIlSt5ratioILl1ELl1EEE5countEv,"axG",@progbits,_ZNKSt6chrono8durationIlSt5ratioILl1ELl1EEE5countEv,comdat
	.align 2
	.weak	_ZNKSt6chrono8durationIlSt5ratioILl1ELl1EEE5countEv
	.type	_ZNKSt6chrono8durationIlSt5ratioILl1ELl1EEE5countEv, @function
_ZNKSt6chrono8durationIlSt5ratioILl1ELl1EEE5countEv:
.LFB5982:
	.cfi_startproc
	pushq	%rbp
	.cfi_def_cfa_offset 16
	.cfi_offset 6, -16
	movq	%rsp, %rbp
	.cfi_def_cfa_register 6
	movq	%rdi, -8(%rbp)
	movq	-8(%rbp), %rax
	movq	(%rax), %rax
	popq	%rbp
	.cfi_def_cfa 7, 8
	ret
	.cfi_endproc
.LFE5982:
	.size	_ZNKSt6chrono8durationIlSt5ratioILl1ELl1EEE5countEv, .-_ZNKSt6chrono8durationIlSt5ratioILl1ELl1EEE5countEv
	.section	.rodata
	.type	_ZStL10defer_lock, @object
	.size	_ZStL10defer_lock, 1
_ZStL10defer_lock:
	.zero	1
	.type	_ZStL11try_to_lock, @object
	.size	_ZStL11try_to_lock, 1
_ZStL11try_to_lock:
	.zero	1
	.type	_ZStL10adopt_lock, @object
	.size	_ZStL10adopt_lock, 1
_ZStL10adopt_lock:
	.zero	1
	.section	.text._ZNSt6thread2idC2Ev,"axG",@progbits,_ZNSt6thread2idC5Ev,comdat
	.align 2
	.weak	_ZNSt6thread2idC2Ev
	.type	_ZNSt6thread2idC2Ev, @function
_ZNSt6thread2idC2Ev:
.LFB6261:
	.cfi_startproc
	pushq	%rbp
	.cfi_def_cfa_offset 16
	.cfi_offset 6, -16
	movq	%rsp, %rbp
	.cfi_def_cfa_register 6
	movq	%rdi, -8(%rbp)
	movq	-8(%rbp), %rax
	movq	$0, (%rax)
	nop
	popq	%rbp
	.cfi_def_cfa 7, 8
	ret
	.cfi_endproc
.LFE6261:
	.size	_ZNSt6thread2idC2Ev, .-_ZNSt6thread2idC2Ev
	.weak	_ZNSt6thread2idC1Ev
	.set	_ZNSt6thread2idC1Ev,_ZNSt6thread2idC2Ev
	.section	.text._ZNSt6threadC2EOS_,"axG",@progbits,_ZNSt6threadC5EOS_,comdat
	.align 2
	.weak	_ZNSt6threadC2EOS_
	.type	_ZNSt6threadC2EOS_, @function
_ZNSt6threadC2EOS_:
.LFB6267:
	.cfi_startproc
	pushq	%rbp
	.cfi_def_cfa_offset 16
	.cfi_offset 6, -16
	movq	%rsp, %rbp
	.cfi_def_cfa_register 6
	subq	$16, %rsp
	movq	%rdi, -8(%rbp)
	movq	%rsi, -16(%rbp)
	movq	-8(%rbp), %rax
	movq	%rax, %rdi
	call	_ZNSt6thread2idC1Ev
	movq	-16(%rbp), %rdx
	movq	-8(%rbp), %rax
	movq	%rdx, %rsi
	movq	%rax, %rdi
	call	_ZNSt6thread4swapERS_
	nop
	leave
	.cfi_def_cfa 7, 8
	ret
	.cfi_endproc
.LFE6267:
	.size	_ZNSt6threadC2EOS_, .-_ZNSt6threadC2EOS_
	.weak	_ZNSt6threadC1EOS_
	.set	_ZNSt6threadC1EOS_,_ZNSt6threadC2EOS_
	.section	.text._ZNSt6threadD2Ev,"axG",@progbits,_ZNSt6threadD5Ev,comdat
	.align 2
	.weak	_ZNSt6threadD2Ev
	.type	_ZNSt6threadD2Ev, @function
_ZNSt6threadD2Ev:
.LFB6271:
	.cfi_startproc
	pushq	%rbp
	.cfi_def_cfa_offset 16
	.cfi_offset 6, -16
	movq	%rsp, %rbp
	.cfi_def_cfa_register 6
	subq	$16, %rsp
	movq	%rdi, -8(%rbp)
	movq	-8(%rbp), %rax
	movq	%rax, %rdi
	call	_ZNKSt6thread8joinableEv
	testb	%al, %al
	je	.L22
	call	_ZSt9terminatev@PLT
.L22:
	nop
	leave
	.cfi_def_cfa 7, 8
	ret
	.cfi_endproc
.LFE6271:
	.size	_ZNSt6threadD2Ev, .-_ZNSt6threadD2Ev
	.weak	_ZNSt6threadD1Ev
	.set	_ZNSt6threadD1Ev,_ZNSt6threadD2Ev
	.section	.text._ZNSt6thread4swapERS_,"axG",@progbits,_ZNSt6thread4swapERS_,comdat
	.align 2
	.weak	_ZNSt6thread4swapERS_
	.type	_ZNSt6thread4swapERS_, @function
_ZNSt6thread4swapERS_:
.LFB6274:
	.cfi_startproc
	pushq	%rbp
	.cfi_def_cfa_offset 16
	.cfi_offset 6, -16
	movq	%rsp, %rbp
	.cfi_def_cfa_register 6
	subq	$16, %rsp
	movq	%rdi, -8(%rbp)
	movq	%rsi, -16(%rbp)
	movq	-16(%rbp), %rdx
	movq	-8(%rbp), %rax
	movq	%rdx, %rsi
	movq	%rax, %rdi
	call	_ZSt4swapINSt6thread2idEENSt9enable_ifIXsrSt6__and_IJSt6__not_ISt15__is_tuple_likeIT_EESt21is_move_constructibleIS6_ESt18is_move_assignableIS6_EEE5valueEvE4typeERS6_SG_
	nop
	leave
	.cfi_def_cfa 7, 8
	ret
	.cfi_endproc
.LFE6274:
	.size	_ZNSt6thread4swapERS_, .-_ZNSt6thread4swapERS_
	.section	.text._ZNKSt6thread8joinableEv,"axG",@progbits,_ZNKSt6thread8joinableEv,comdat
	.align 2
	.weak	_ZNKSt6thread8joinableEv
	.type	_ZNKSt6thread8joinableEv, @function
_ZNKSt6thread8joinableEv:
.LFB6275:
	.cfi_startproc
	pushq	%rbp
	.cfi_def_cfa_offset 16
	.cfi_offset 6, -16
	movq	%rsp, %rbp
	.cfi_def_cfa_register 6
	subq	$32, %rsp
	movq	%rdi, -24(%rbp)
	movq	%fs:40, %rax
	movq	%rax, -8(%rbp)
	xorl	%eax, %eax
	leaq	-16(%rbp), %rax
	movq	%rax, %rdi
	call	_ZNSt6thread2idC1Ev
	movq	-16(%rbp), %rdx
	movq	-24(%rbp), %rax
	movq	%rdx, %rsi
	movq	(%rax), %rdi
	call	_ZSteqNSt6thread2idES0_
	xorl	$1, %eax
	movq	-8(%rbp), %rcx
	xorq	%fs:40, %rcx
	je	.L26
	call	__stack_chk_fail@PLT
.L26:
	leave
	.cfi_def_cfa 7, 8
	ret
	.cfi_endproc
.LFE6275:
	.size	_ZNKSt6thread8joinableEv, .-_ZNKSt6thread8joinableEv
	.section	.text._ZNKSt6thread6get_idEv,"axG",@progbits,_ZNKSt6thread6get_idEv,comdat
	.align 2
	.weak	_ZNKSt6thread6get_idEv
	.type	_ZNKSt6thread6get_idEv, @function
_ZNKSt6thread6get_idEv:
.LFB6276:
	.cfi_startproc
	pushq	%rbp
	.cfi_def_cfa_offset 16
	.cfi_offset 6, -16
	movq	%rsp, %rbp
	.cfi_def_cfa_register 6
	movq	%rdi, -8(%rbp)
	movq	-8(%rbp), %rax
	movq	(%rax), %rax
	popq	%rbp
	.cfi_def_cfa 7, 8
	ret
	.cfi_endproc
.LFE6276:
	.size	_ZNKSt6thread6get_idEv, .-_ZNKSt6thread6get_idEv
	.section	.text._ZSteqNSt6thread2idES0_,"axG",@progbits,_ZSteqNSt6thread2idES0_,comdat
	.weak	_ZSteqNSt6thread2idES0_
	.type	_ZSteqNSt6thread2idES0_, @function
_ZSteqNSt6thread2idES0_:
.LFB6285:
	.cfi_startproc
	pushq	%rbp
	.cfi_def_cfa_offset 16
	.cfi_offset 6, -16
	movq	%rsp, %rbp
	.cfi_def_cfa_register 6
	movq	%rdi, -8(%rbp)
	movq	%rsi, -16(%rbp)
	movq	-8(%rbp), %rdx
	movq	-16(%rbp), %rax
	cmpq	%rax, %rdx
	sete	%al
	popq	%rbp
	.cfi_def_cfa 7, 8
	ret
	.cfi_endproc
.LFE6285:
	.size	_ZSteqNSt6thread2idES0_, .-_ZSteqNSt6thread2idES0_
	.section	.rodata
	.align 4
	.type	_ZNSt15regex_constantsL5icaseE, @object
	.size	_ZNSt15regex_constantsL5icaseE, 4
_ZNSt15regex_constantsL5icaseE:
	.long	1
	.align 4
	.type	_ZNSt15regex_constantsL6nosubsE, @object
	.size	_ZNSt15regex_constantsL6nosubsE, 4
_ZNSt15regex_constantsL6nosubsE:
	.long	2
	.align 4
	.type	_ZNSt15regex_constantsL8optimizeE, @object
	.size	_ZNSt15regex_constantsL8optimizeE, 4
_ZNSt15regex_constantsL8optimizeE:
	.long	4
	.align 4
	.type	_ZNSt15regex_constantsL7collateE, @object
	.size	_ZNSt15regex_constantsL7collateE, 4
_ZNSt15regex_constantsL7collateE:
	.long	8
	.align 4
	.type	_ZNSt15regex_constantsL10ECMAScriptE, @object
	.size	_ZNSt15regex_constantsL10ECMAScriptE, 4
_ZNSt15regex_constantsL10ECMAScriptE:
	.long	16
	.align 4
	.type	_ZNSt15regex_constantsL5basicE, @object
	.size	_ZNSt15regex_constantsL5basicE, 4
_ZNSt15regex_constantsL5basicE:
	.long	32
	.align 4
	.type	_ZNSt15regex_constantsL8extendedE, @object
	.size	_ZNSt15regex_constantsL8extendedE, 4
_ZNSt15regex_constantsL8extendedE:
	.long	64
	.align 4
	.type	_ZNSt15regex_constantsL3awkE, @object
	.size	_ZNSt15regex_constantsL3awkE, 4
_ZNSt15regex_constantsL3awkE:
	.long	128
	.align 4
	.type	_ZNSt15regex_constantsL4grepE, @object
	.size	_ZNSt15regex_constantsL4grepE, 4
_ZNSt15regex_constantsL4grepE:
	.long	256
	.align 4
	.type	_ZNSt15regex_constantsL5egrepE, @object
	.size	_ZNSt15regex_constantsL5egrepE, 4
_ZNSt15regex_constantsL5egrepE:
	.long	512
	.align 4
	.type	_ZNSt15regex_constantsL12__polynomialE, @object
	.size	_ZNSt15regex_constantsL12__polynomialE, 4
_ZNSt15regex_constantsL12__polynomialE:
	.long	1024
	.align 4
	.type	_ZNSt15regex_constantsL13match_defaultE, @object
	.size	_ZNSt15regex_constantsL13match_defaultE, 4
_ZNSt15regex_constantsL13match_defaultE:
	.zero	4
	.align 4
	.type	_ZNSt15regex_constantsL13match_not_bolE, @object
	.size	_ZNSt15regex_constantsL13match_not_bolE, 4
_ZNSt15regex_constantsL13match_not_bolE:
	.long	1
	.align 4
	.type	_ZNSt15regex_constantsL13match_not_eolE, @object
	.size	_ZNSt15regex_constantsL13match_not_eolE, 4
_ZNSt15regex_constantsL13match_not_eolE:
	.long	2
	.align 4
	.type	_ZNSt15regex_constantsL13match_not_bowE, @object
	.size	_ZNSt15regex_constantsL13match_not_bowE, 4
_ZNSt15regex_constantsL13match_not_bowE:
	.long	4
	.align 4
	.type	_ZNSt15regex_constantsL13match_not_eowE, @object
	.size	_ZNSt15regex_constantsL13match_not_eowE, 4
_ZNSt15regex_constantsL13match_not_eowE:
	.long	8
	.align 4
	.type	_ZNSt15regex_constantsL9match_anyE, @object
	.size	_ZNSt15regex_constantsL9match_anyE, 4
_ZNSt15regex_constantsL9match_anyE:
	.long	16
	.align 4
	.type	_ZNSt15regex_constantsL14match_not_nullE, @object
	.size	_ZNSt15regex_constantsL14match_not_nullE, 4
_ZNSt15regex_constantsL14match_not_nullE:
	.long	32
	.align 4
	.type	_ZNSt15regex_constantsL16match_continuousE, @object
	.size	_ZNSt15regex_constantsL16match_continuousE, 4
_ZNSt15regex_constantsL16match_continuousE:
	.long	64
	.align 4
	.type	_ZNSt15regex_constantsL16match_prev_availE, @object
	.size	_ZNSt15regex_constantsL16match_prev_availE, 4
_ZNSt15regex_constantsL16match_prev_availE:
	.long	128
	.align 4
	.type	_ZNSt15regex_constantsL14format_defaultE, @object
	.size	_ZNSt15regex_constantsL14format_defaultE, 4
_ZNSt15regex_constantsL14format_defaultE:
	.zero	4
	.align 4
	.type	_ZNSt15regex_constantsL10format_sedE, @object
	.size	_ZNSt15regex_constantsL10format_sedE, 4
_ZNSt15regex_constantsL10format_sedE:
	.long	256
	.align 4
	.type	_ZNSt15regex_constantsL14format_no_copyE, @object
	.size	_ZNSt15regex_constantsL14format_no_copyE, 4
_ZNSt15regex_constantsL14format_no_copyE:
	.long	512
	.align 4
	.type	_ZNSt15regex_constantsL17format_first_onlyE, @object
	.size	_ZNSt15regex_constantsL17format_first_onlyE, 4
_ZNSt15regex_constantsL17format_first_onlyE:
	.long	1024
	.align 4
	.type	_ZNSt15regex_constantsL13error_collateE, @object
	.size	_ZNSt15regex_constantsL13error_collateE, 4
_ZNSt15regex_constantsL13error_collateE:
	.zero	4
	.align 4
	.type	_ZNSt15regex_constantsL11error_ctypeE, @object
	.size	_ZNSt15regex_constantsL11error_ctypeE, 4
_ZNSt15regex_constantsL11error_ctypeE:
	.long	1
	.align 4
	.type	_ZNSt15regex_constantsL12error_escapeE, @object
	.size	_ZNSt15regex_constantsL12error_escapeE, 4
_ZNSt15regex_constantsL12error_escapeE:
	.long	2
	.align 4
	.type	_ZNSt15regex_constantsL13error_backrefE, @object
	.size	_ZNSt15regex_constantsL13error_backrefE, 4
_ZNSt15regex_constantsL13error_backrefE:
	.long	3
	.align 4
	.type	_ZNSt15regex_constantsL11error_brackE, @object
	.size	_ZNSt15regex_constantsL11error_brackE, 4
_ZNSt15regex_constantsL11error_brackE:
	.long	4
	.align 4
	.type	_ZNSt15regex_constantsL11error_parenE, @object
	.size	_ZNSt15regex_constantsL11error_parenE, 4
_ZNSt15regex_constantsL11error_parenE:
	.long	5
	.align 4
	.type	_ZNSt15regex_constantsL11error_braceE, @object
	.size	_ZNSt15regex_constantsL11error_braceE, 4
_ZNSt15regex_constantsL11error_braceE:
	.long	6
	.align 4
	.type	_ZNSt15regex_constantsL14error_badbraceE, @object
	.size	_ZNSt15regex_constantsL14error_badbraceE, 4
_ZNSt15regex_constantsL14error_badbraceE:
	.long	7
	.align 4
	.type	_ZNSt15regex_constantsL11error_rangeE, @object
	.size	_ZNSt15regex_constantsL11error_rangeE, 4
_ZNSt15regex_constantsL11error_rangeE:
	.long	8
	.align 4
	.type	_ZNSt15regex_constantsL11error_spaceE, @object
	.size	_ZNSt15regex_constantsL11error_spaceE, 4
_ZNSt15regex_constantsL11error_spaceE:
	.long	9
	.align 4
	.type	_ZNSt15regex_constantsL15error_badrepeatE, @object
	.size	_ZNSt15regex_constantsL15error_badrepeatE, 4
_ZNSt15regex_constantsL15error_badrepeatE:
	.long	10
	.align 4
	.type	_ZNSt15regex_constantsL16error_complexityE, @object
	.size	_ZNSt15regex_constantsL16error_complexityE, 4
_ZNSt15regex_constantsL16error_complexityE:
	.long	11
	.align 4
	.type	_ZNSt15regex_constantsL11error_stackE, @object
	.size	_ZNSt15regex_constantsL11error_stackE, 4
_ZNSt15regex_constantsL11error_stackE:
	.long	12
	.align 8
	.type	_ZNSt8__detailL19_S_invalid_state_idE, @object
	.size	_ZNSt8__detailL19_S_invalid_state_idE, 8
_ZNSt8__detailL19_S_invalid_state_idE:
	.quad	-1
.LC0:
	.string	"w"
.LC1:
	.string	"log.txt"
	.align 8
.LC2:
	.string	"[Packet Analyser] Unable to create logfile.\n"
	.align 8
.LC3:
	.string	"[Packet Analyser] Socket Error. Try with Admin Privilleges.\n"
	.align 8
.LC4:
	.string	"Recv from error , failed to get packets\n"
	.text
	.align 2
	.globl	_ZN14packetAnalyser9runPacketEv
	.type	_ZN14packetAnalyser9runPacketEv, @function
_ZN14packetAnalyser9runPacketEv:
.LFB8188:
	.cfi_startproc
	pushq	%rbp
	.cfi_def_cfa_offset 16
	.cfi_offset 6, -16
	movq	%rsp, %rbp
	.cfi_def_cfa_register 6
	subq	$32, %rsp
	movq	%rdi, -24(%rbp)
	leaq	.LC0(%rip), %rsi
	leaq	.LC1(%rip), %rdi
	call	fopen@PLT
	movq	%rax, %rdx
	movq	-24(%rbp), %rax
	movq	%rdx, (%rax)
	movq	-24(%rbp), %rax
	movq	(%rax), %rax
	testq	%rax, %rax
	jne	.L32
	leaq	.LC2(%rip), %rsi
	leaq	_ZSt4cout(%rip), %rdi
	call	_ZStlsISt11char_traitsIcEERSt13basic_ostreamIcT_ES5_PKc@PLT
.L32:
	movl	$3, %edi
	call	htons@PLT
	movzwl	%ax, %eax
	movl	%eax, %edx
	movl	$3, %esi
	movl	$17, %edi
	call	socket@PLT
	movl	%eax, -4(%rbp)
	cmpl	$0, -4(%rbp)
	jns	.L33
	leaq	.LC3(%rip), %rsi
	leaq	_ZSt4cout(%rip), %rdi
	call	_ZStlsISt11char_traitsIcEERSt13basic_ostreamIcT_ES5_PKc@PLT
	movl	$0, %edi
	call	exit@PLT
.L33:
	movq	-24(%rbp), %rax
	movl	$16, 72(%rax)
	movq	-24(%rbp), %rax
	leaq	72(%rax), %rcx
	movq	-24(%rbp), %rax
	leaq	80(%rax), %rdx
	movq	-24(%rbp), %rax
	movq	96(%rax), %rsi
	movl	-4(%rbp), %eax
	movq	%rcx, %r9
	movq	%rdx, %r8
	movl	$0, %ecx
	movl	$65536, %edx
	movl	%eax, %edi
	call	recvfrom@PLT
	movl	%eax, %edx
	movq	-24(%rbp), %rax
	movl	%edx, 76(%rax)
	movq	-24(%rbp), %rax
	movl	76(%rax), %eax
	testl	%eax, %eax
	jns	.L34
	leaq	.LC4(%rip), %rsi
	leaq	_ZSt4cout(%rip), %rdi
	call	_ZStlsISt11char_traitsIcEERSt13basic_ostreamIcT_ES5_PKc@PLT
	movl	$0, %edi
	call	exit@PLT
.L34:
	movq	-24(%rbp), %rax
	movl	76(%rax), %edx
	movq	-24(%rbp), %rax
	movq	96(%rax), %rcx
	movq	-24(%rbp), %rax
	movq	%rcx, %rsi
	movq	%rax, %rdi
	call	_ZN14packetAnalyser13ProcessPacketEPhi
	jmp	.L33
	.cfi_endproc
.LFE8188:
	.size	_ZN14packetAnalyser9runPacketEv, .-_ZN14packetAnalyser9runPacketEv
	.section	.rodata
	.align 8
.LC5:
	.string	"TCP : %d   UDP : %d   ICMP : %d   IGMP : %d   Others : %d   Total : %d\r"
	.text
	.align 2
	.globl	_ZN14packetAnalyser13ProcessPacketEPhi
	.type	_ZN14packetAnalyser13ProcessPacketEPhi, @function
_ZN14packetAnalyser13ProcessPacketEPhi:
.LFB8189:
	.cfi_startproc
	pushq	%rbp
	.cfi_def_cfa_offset 16
	.cfi_offset 6, -16
	movq	%rsp, %rbp
	.cfi_def_cfa_register 6
	subq	$48, %rsp
	movq	%rdi, -24(%rbp)
	movq	%rsi, -32(%rbp)
	movl	%edx, -36(%rbp)
	movq	-32(%rbp), %rax
	addq	$14, %rax
	movq	%rax, -8(%rbp)
	movq	-24(%rbp), %rax
	movl	60(%rax), %eax
	leal	1(%rax), %edx
	movq	-24(%rbp), %rax
	movl	%edx, 60(%rax)
	movq	-8(%rbp), %rax
	movzbl	9(%rax), %eax
	movzbl	%al, %eax
	cmpl	$2, %eax
	je	.L37
	cmpl	$2, %eax
	jg	.L38
	cmpl	$1, %eax
	je	.L39
	jmp	.L36
.L38:
	cmpl	$6, %eax
	je	.L40
	cmpl	$17, %eax
	je	.L41
	jmp	.L36
.L39:
	movq	-24(%rbp), %rax
	movl	48(%rax), %eax
	leal	1(%rax), %edx
	movq	-24(%rbp), %rax
	movl	%edx, 48(%rax)
	movl	-36(%rbp), %edx
	movq	-32(%rbp), %rcx
	movq	-24(%rbp), %rax
	movq	%rcx, %rsi
	movq	%rax, %rdi
	call	_ZN14packetAnalyser15printICMPPacketEPhi
	jmp	.L42
.L37:
	movq	-24(%rbp), %rax
	movl	56(%rax), %eax
	leal	1(%rax), %edx
	movq	-24(%rbp), %rax
	movl	%edx, 56(%rax)
	jmp	.L42
.L40:
	movq	-24(%rbp), %rax
	movl	40(%rax), %eax
	leal	1(%rax), %edx
	movq	-24(%rbp), %rax
	movl	%edx, 40(%rax)
	movl	-36(%rbp), %edx
	movq	-32(%rbp), %rcx
	movq	-24(%rbp), %rax
	movq	%rcx, %rsi
	movq	%rax, %rdi
	call	_ZN14packetAnalyser14printTCPPacketEPhi
	jmp	.L42
.L41:
	movq	-24(%rbp), %rax
	movl	44(%rax), %eax
	leal	1(%rax), %edx
	movq	-24(%rbp), %rax
	movl	%edx, 44(%rax)
	movl	-36(%rbp), %edx
	movq	-32(%rbp), %rcx
	movq	-24(%rbp), %rax
	movq	%rcx, %rsi
	movq	%rax, %rdi
	call	_ZN14packetAnalyser14printUDPPacketEPhi
	jmp	.L42
.L36:
	movq	-24(%rbp), %rax
	movl	52(%rax), %eax
	leal	1(%rax), %edx
	movq	-24(%rbp), %rax
	movl	%edx, 52(%rax)
	nop
.L42:
	movq	-24(%rbp), %rax
	movl	60(%rax), %esi
	movq	-24(%rbp), %rax
	movl	52(%rax), %r8d
	movq	-24(%rbp), %rax
	movl	56(%rax), %edi
	movq	-24(%rbp), %rax
	movl	48(%rax), %ecx
	movq	-24(%rbp), %rax
	movl	44(%rax), %edx
	movq	-24(%rbp), %rax
	movl	40(%rax), %eax
	subq	$8, %rsp
	pushq	%rsi
	movl	%r8d, %r9d
	movl	%edi, %r8d
	movl	%eax, %esi
	leaq	.LC5(%rip), %rdi
	movl	$0, %eax
	call	printf@PLT
	addq	$16, %rsp
	nop
	leave
	.cfi_def_cfa 7, 8
	ret
	.cfi_endproc
.LFE8189:
	.size	_ZN14packetAnalyser13ProcessPacketEPhi, .-_ZN14packetAnalyser13ProcessPacketEPhi
	.section	.rodata
.LC6:
	.string	"Ethernet Header\n"
	.align 8
.LC7:
	.string	"   |-Destination Address : %.2X-%.2X-%.2X-%.2X-%.2X-%.2X \n"
	.align 8
.LC8:
	.string	"   |-Source Address      : %.2X-%.2X-%.2X-%.2X-%.2X-%.2X \n"
	.align 8
.LC9:
	.string	"   |-Protocol            : %u \n"
	.text
	.align 2
	.globl	_ZN14packetAnalyser19printEthernetHeaderEPhi
	.type	_ZN14packetAnalyser19printEthernetHeaderEPhi, @function
_ZN14packetAnalyser19printEthernetHeaderEPhi:
.LFB8190:
	.cfi_startproc
	pushq	%rbp
	.cfi_def_cfa_offset 16
	.cfi_offset 6, -16
	movq	%rsp, %rbp
	.cfi_def_cfa_register 6
	subq	$48, %rsp
	movq	%rdi, -24(%rbp)
	movq	%rsi, -32(%rbp)
	movl	%edx, -36(%rbp)
	movq	-32(%rbp), %rax
	movq	%rax, -8(%rbp)
	movq	-24(%rbp), %rax
	movq	(%rax), %rax
	movq	%rax, %rsi
	movl	$10, %edi
	call	fputc@PLT
	movq	-24(%rbp), %rax
	movq	(%rax), %rax
	movq	%rax, %rcx
	movl	$16, %edx
	movl	$1, %esi
	leaq	.LC6(%rip), %rdi
	call	fwrite@PLT
	movq	-8(%rbp), %rax
	movzbl	5(%rax), %eax
	movzbl	%al, %edi
	movq	-8(%rbp), %rax
	movzbl	4(%rax), %eax
	movzbl	%al, %esi
	movq	-8(%rbp), %rax
	movzbl	3(%rax), %eax
	movzbl	%al, %r9d
	movq	-8(%rbp), %rax
	movzbl	2(%rax), %eax
	movzbl	%al, %r8d
	movq	-8(%rbp), %rax
	movzbl	1(%rax), %eax
	movzbl	%al, %ecx
	movq	-8(%rbp), %rax
	movzbl	(%rax), %eax
	movzbl	%al, %edx
	movq	-24(%rbp), %rax
	movq	(%rax), %rax
	pushq	%rdi
	pushq	%rsi
	leaq	.LC7(%rip), %rsi
	movq	%rax, %rdi
	movl	$0, %eax
	call	fprintf@PLT
	addq	$16, %rsp
	movq	-8(%rbp), %rax
	movzbl	11(%rax), %eax
	movzbl	%al, %edi
	movq	-8(%rbp), %rax
	movzbl	10(%rax), %eax
	movzbl	%al, %esi
	movq	-8(%rbp), %rax
	movzbl	9(%rax), %eax
	movzbl	%al, %r9d
	movq	-8(%rbp), %rax
	movzbl	8(%rax), %eax
	movzbl	%al, %r8d
	movq	-8(%rbp), %rax
	movzbl	7(%rax), %eax
	movzbl	%al, %ecx
	movq	-8(%rbp), %rax
	movzbl	6(%rax), %eax
	movzbl	%al, %edx
	movq	-24(%rbp), %rax
	movq	(%rax), %rax
	pushq	%rdi
	pushq	%rsi
	leaq	.LC8(%rip), %rsi
	movq	%rax, %rdi
	movl	$0, %eax
	call	fprintf@PLT
	addq	$16, %rsp
	movq	-8(%rbp), %rax
	movzwl	12(%rax), %eax
	movzwl	%ax, %edx
	movq	-24(%rbp), %rax
	movq	(%rax), %rax
	leaq	.LC9(%rip), %rsi
	movq	%rax, %rdi
	movl	$0, %eax
	call	fprintf@PLT
	nop
	leave
	.cfi_def_cfa 7, 8
	ret
	.cfi_endproc
.LFE8190:
	.size	_ZN14packetAnalyser19printEthernetHeaderEPhi, .-_ZN14packetAnalyser19printEthernetHeaderEPhi
	.section	.rodata
.LC10:
	.string	"IP Header\n"
.LC11:
	.string	"   |-IP Version        : %d\n"
	.align 8
.LC12:
	.string	"   |-IP Header Length  : %d DWORDS or %d Bytes\n"
.LC13:
	.string	"   |-Type Of Service   : %d\n"
	.align 8
.LC14:
	.string	"   |-IP Total Length   : %d  Bytes(Size of Packet)\n"
.LC15:
	.string	"   |-Identification    : %d\n"
.LC16:
	.string	"   |-TTL      : %d\n"
.LC17:
	.string	"   |-Protocol : %d\n"
.LC18:
	.string	"   |-Checksum : %d\n"
.LC19:
	.string	"   |-Source IP        : %s\n"
.LC20:
	.string	"   |-Destination IP   : %s\n"
	.text
	.align 2
	.globl	_ZN14packetAnalyser13printIPHeaderEPhi
	.type	_ZN14packetAnalyser13printIPHeaderEPhi, @function
_ZN14packetAnalyser13printIPHeaderEPhi:
.LFB8191:
	.cfi_startproc
	pushq	%rbp
	.cfi_def_cfa_offset 16
	.cfi_offset 6, -16
	movq	%rsp, %rbp
	.cfi_def_cfa_register 6
	subq	$48, %rsp
	movq	%rdi, -24(%rbp)
	movq	%rsi, -32(%rbp)
	movl	%edx, -36(%rbp)
	movl	-36(%rbp), %edx
	movq	-32(%rbp), %rcx
	movq	-24(%rbp), %rax
	movq	%rcx, %rsi
	movq	%rax, %rdi
	call	_ZN14packetAnalyser19printEthernetHeaderEPhi
	movq	-32(%rbp), %rax
	addq	$14, %rax
	movq	%rax, -8(%rbp)
	movq	-8(%rbp), %rax
	movzbl	(%rax), %eax
	andl	$15, %eax
	movzbl	%al, %eax
	sall	$2, %eax
	movw	%ax, -10(%rbp)
	movq	-24(%rbp), %rax
	addq	$8, %rax
	movl	$16, %edx
	movl	$0, %esi
	movq	%rax, %rdi
	call	memset@PLT
	movq	-8(%rbp), %rax
	movl	12(%rax), %edx
	movq	-24(%rbp), %rax
	movl	%edx, 12(%rax)
	movq	-24(%rbp), %rax
	addq	$24, %rax
	movl	$16, %edx
	movl	$0, %esi
	movq	%rax, %rdi
	call	memset@PLT
	movq	-8(%rbp), %rax
	movl	16(%rax), %edx
	movq	-24(%rbp), %rax
	movl	%edx, 28(%rax)
	movq	-24(%rbp), %rax
	movq	(%rax), %rax
	movq	%rax, %rsi
	movl	$10, %edi
	call	fputc@PLT
	movq	-24(%rbp), %rax
	movq	(%rax), %rax
	movq	%rax, %rcx
	movl	$10, %edx
	movl	$1, %esi
	leaq	.LC10(%rip), %rdi
	call	fwrite@PLT
	movq	-8(%rbp), %rax
	movzbl	(%rax), %eax
	shrb	$4, %al
	movzbl	%al, %edx
	movq	-24(%rbp), %rax
	movq	(%rax), %rax
	leaq	.LC11(%rip), %rsi
	movq	%rax, %rdi
	movl	$0, %eax
	call	fprintf@PLT
	movq	-8(%rbp), %rax
	movzbl	(%rax), %eax
	andl	$15, %eax
	movzbl	%al, %eax
	leal	0(,%rax,4), %ecx
	movq	-8(%rbp), %rax
	movzbl	(%rax), %eax
	andl	$15, %eax
	movzbl	%al, %edx
	movq	-24(%rbp), %rax
	movq	(%rax), %rax
	leaq	.LC12(%rip), %rsi
	movq	%rax, %rdi
	movl	$0, %eax
	call	fprintf@PLT
	movq	-8(%rbp), %rax
	movzbl	1(%rax), %eax
	movzbl	%al, %edx
	movq	-24(%rbp), %rax
	movq	(%rax), %rax
	leaq	.LC13(%rip), %rsi
	movq	%rax, %rdi
	movl	$0, %eax
	call	fprintf@PLT
	movq	-8(%rbp), %rax
	movzwl	2(%rax), %eax
	movzwl	%ax, %eax
	movl	%eax, %edi
	call	ntohs@PLT
	movzwl	%ax, %edx
	movq	-24(%rbp), %rax
	movq	(%rax), %rax
	leaq	.LC14(%rip), %rsi
	movq	%rax, %rdi
	movl	$0, %eax
	call	fprintf@PLT
	movq	-8(%rbp), %rax
	movzwl	4(%rax), %eax
	movzwl	%ax, %eax
	movl	%eax, %edi
	call	ntohs@PLT
	movzwl	%ax, %edx
	movq	-24(%rbp), %rax
	movq	(%rax), %rax
	leaq	.LC15(%rip), %rsi
	movq	%rax, %rdi
	movl	$0, %eax
	call	fprintf@PLT
	movq	-8(%rbp), %rax
	movzbl	8(%rax), %eax
	movzbl	%al, %edx
	movq	-24(%rbp), %rax
	movq	(%rax), %rax
	leaq	.LC16(%rip), %rsi
	movq	%rax, %rdi
	movl	$0, %eax
	call	fprintf@PLT
	movq	-8(%rbp), %rax
	movzbl	9(%rax), %eax
	movzbl	%al, %edx
	movq	-24(%rbp), %rax
	movq	(%rax), %rax
	leaq	.LC17(%rip), %rsi
	movq	%rax, %rdi
	movl	$0, %eax
	call	fprintf@PLT
	movq	-8(%rbp), %rax
	movzwl	10(%rax), %eax
	movzwl	%ax, %eax
	movl	%eax, %edi
	call	ntohs@PLT
	movzwl	%ax, %edx
	movq	-24(%rbp), %rax
	movq	(%rax), %rax
	leaq	.LC18(%rip), %rsi
	movq	%rax, %rdi
	movl	$0, %eax
	call	fprintf@PLT
	movq	-24(%rbp), %rax
	movl	12(%rax), %eax
	movl	%eax, %edi
	call	inet_ntoa@PLT
	movq	%rax, %rdx
	movq	-24(%rbp), %rax
	movq	(%rax), %rax
	leaq	.LC19(%rip), %rsi
	movq	%rax, %rdi
	movl	$0, %eax
	call	fprintf@PLT
	movq	-24(%rbp), %rax
	movl	28(%rax), %eax
	movl	%eax, %edi
	call	inet_ntoa@PLT
	movq	%rax, %rdx
	movq	-24(%rbp), %rax
	movq	(%rax), %rax
	leaq	.LC20(%rip), %rsi
	movq	%rax, %rdi
	movl	$0, %eax
	call	fprintf@PLT
	nop
	leave
	.cfi_def_cfa 7, 8
	ret
	.cfi_endproc
.LFE8191:
	.size	_ZN14packetAnalyser13printIPHeaderEPhi, .-_ZN14packetAnalyser13printIPHeaderEPhi
	.section	.rodata
	.align 8
.LC21:
	.string	"\n\n***********************TCP Packet*************************\n"
.LC22:
	.string	"TCP Header\n"
.LC23:
	.string	"   |-Source Port      : %u\n"
.LC24:
	.string	"   |-Destination Port : %u\n"
.LC25:
	.string	"   |-Sequence Number    : %u\n"
.LC26:
	.string	"   |-Acknowledge Number : %u\n"
	.align 8
.LC27:
	.string	"   |-Header Length      : %d DWORDS or %d BYTES\n"
	.align 8
.LC28:
	.string	"   |-Urgent Flag          : %d\n"
	.align 8
.LC29:
	.string	"   |-Acknowledgement Flag : %d\n"
	.align 8
.LC30:
	.string	"   |-Push Flag            : %d\n"
	.align 8
.LC31:
	.string	"   |-Reset Flag           : %d\n"
	.align 8
.LC32:
	.string	"   |-Synchronise Flag     : %d\n"
	.align 8
.LC33:
	.string	"   |-Finish Flag          : %d\n"
.LC34:
	.string	"   |-Window         : %d\n"
.LC35:
	.string	"   |-Checksum       : %d\n"
.LC36:
	.string	"   |-Urgent Pointer : %d\n"
	.align 8
.LC37:
	.string	"                        DATA Dump                         "
.LC38:
	.string	"Data Payload\n"
	.align 8
.LC39:
	.string	"\n###########################################################"
	.text
	.align 2
	.globl	_ZN14packetAnalyser14printTCPPacketEPhi
	.type	_ZN14packetAnalyser14printTCPPacketEPhi, @function
_ZN14packetAnalyser14printTCPPacketEPhi:
.LFB8192:
	.cfi_startproc
	pushq	%rbp
	.cfi_def_cfa_offset 16
	.cfi_offset 6, -16
	movq	%rsp, %rbp
	.cfi_def_cfa_register 6
	subq	$64, %rsp
	movq	%rdi, -40(%rbp)
	movq	%rsi, -48(%rbp)
	movl	%edx, -52(%rbp)
	movq	-48(%rbp), %rax
	addq	$14, %rax
	movq	%rax, -16(%rbp)
	movq	-16(%rbp), %rax
	movzbl	(%rax), %eax
	andl	$15, %eax
	movzbl	%al, %eax
	sall	$2, %eax
	movw	%ax, -22(%rbp)
	movzwl	-22(%rbp), %eax
	leaq	14(%rax), %rdx
	movq	-48(%rbp), %rax
	addq	%rdx, %rax
	movq	%rax, -8(%rbp)
	movzwl	-22(%rbp), %edx
	movq	-8(%rbp), %rax
	movzbl	12(%rax), %eax
	shrb	$4, %al
	movzbl	%al, %eax
	sall	$2, %eax
	addl	%edx, %eax
	addl	$14, %eax
	movl	%eax, -20(%rbp)
	movq	-40(%rbp), %rax
	movq	(%rax), %rax
	movq	%rax, %rcx
	movl	$61, %edx
	movl	$1, %esi
	leaq	.LC21(%rip), %rdi
	call	fwrite@PLT
	movl	-52(%rbp), %edx
	movq	-48(%rbp), %rcx
	movq	-40(%rbp), %rax
	movq	%rcx, %rsi
	movq	%rax, %rdi
	call	_ZN14packetAnalyser13printIPHeaderEPhi
	movq	-40(%rbp), %rax
	movq	(%rax), %rax
	movq	%rax, %rsi
	movl	$10, %edi
	call	fputc@PLT
	movq	-40(%rbp), %rax
	movq	(%rax), %rax
	movq	%rax, %rcx
	movl	$11, %edx
	movl	$1, %esi
	leaq	.LC22(%rip), %rdi
	call	fwrite@PLT
	movq	-8(%rbp), %rax
	movzwl	(%rax), %eax
	movzwl	%ax, %eax
	movl	%eax, %edi
	call	ntohs@PLT
	movzwl	%ax, %edx
	movq	-40(%rbp), %rax
	movq	(%rax), %rax
	leaq	.LC23(%rip), %rsi
	movq	%rax, %rdi
	movl	$0, %eax
	call	fprintf@PLT
	movq	-8(%rbp), %rax
	movzwl	2(%rax), %eax
	movzwl	%ax, %eax
	movl	%eax, %edi
	call	ntohs@PLT
	movzwl	%ax, %edx
	movq	-40(%rbp), %rax
	movq	(%rax), %rax
	leaq	.LC24(%rip), %rsi
	movq	%rax, %rdi
	movl	$0, %eax
	call	fprintf@PLT
	movq	-8(%rbp), %rax
	movl	4(%rax), %eax
	movl	%eax, %edi
	call	ntohl@PLT
	movl	%eax, %edx
	movq	-40(%rbp), %rax
	movq	(%rax), %rax
	leaq	.LC25(%rip), %rsi
	movq	%rax, %rdi
	movl	$0, %eax
	call	fprintf@PLT
	movq	-8(%rbp), %rax
	movl	8(%rax), %eax
	movl	%eax, %edi
	call	ntohl@PLT
	movl	%eax, %edx
	movq	-40(%rbp), %rax
	movq	(%rax), %rax
	leaq	.LC26(%rip), %rsi
	movq	%rax, %rdi
	movl	$0, %eax
	call	fprintf@PLT
	movq	-8(%rbp), %rax
	movzbl	12(%rax), %eax
	shrb	$4, %al
	movzbl	%al, %eax
	leal	0(,%rax,4), %ecx
	movq	-8(%rbp), %rax
	movzbl	12(%rax), %eax
	shrb	$4, %al
	movzbl	%al, %edx
	movq	-40(%rbp), %rax
	movq	(%rax), %rax
	leaq	.LC27(%rip), %rsi
	movq	%rax, %rdi
	movl	$0, %eax
	call	fprintf@PLT
	movq	-8(%rbp), %rax
	movzbl	13(%rax), %eax
	shrb	$5, %al
	andl	$1, %eax
	movzbl	%al, %edx
	movq	-40(%rbp), %rax
	movq	(%rax), %rax
	leaq	.LC28(%rip), %rsi
	movq	%rax, %rdi
	movl	$0, %eax
	call	fprintf@PLT
	movq	-8(%rbp), %rax
	movzbl	13(%rax), %eax
	shrb	$4, %al
	andl	$1, %eax
	movzbl	%al, %edx
	movq	-40(%rbp), %rax
	movq	(%rax), %rax
	leaq	.LC29(%rip), %rsi
	movq	%rax, %rdi
	movl	$0, %eax
	call	fprintf@PLT
	movq	-8(%rbp), %rax
	movzbl	13(%rax), %eax
	shrb	$3, %al
	andl	$1, %eax
	movzbl	%al, %edx
	movq	-40(%rbp), %rax
	movq	(%rax), %rax
	leaq	.LC30(%rip), %rsi
	movq	%rax, %rdi
	movl	$0, %eax
	call	fprintf@PLT
	movq	-8(%rbp), %rax
	movzbl	13(%rax), %eax
	shrb	$2, %al
	andl	$1, %eax
	movzbl	%al, %edx
	movq	-40(%rbp), %rax
	movq	(%rax), %rax
	leaq	.LC31(%rip), %rsi
	movq	%rax, %rdi
	movl	$0, %eax
	call	fprintf@PLT
	movq	-8(%rbp), %rax
	movzbl	13(%rax), %eax
	shrb	%al
	andl	$1, %eax
	movzbl	%al, %edx
	movq	-40(%rbp), %rax
	movq	(%rax), %rax
	leaq	.LC32(%rip), %rsi
	movq	%rax, %rdi
	movl	$0, %eax
	call	fprintf@PLT
	movq	-8(%rbp), %rax
	movzbl	13(%rax), %eax
	andl	$1, %eax
	movzbl	%al, %edx
	movq	-40(%rbp), %rax
	movq	(%rax), %rax
	leaq	.LC33(%rip), %rsi
	movq	%rax, %rdi
	movl	$0, %eax
	call	fprintf@PLT
	movq	-8(%rbp), %rax
	movzwl	14(%rax), %eax
	movzwl	%ax, %eax
	movl	%eax, %edi
	call	ntohs@PLT
	movzwl	%ax, %edx
	movq	-40(%rbp), %rax
	movq	(%rax), %rax
	leaq	.LC34(%rip), %rsi
	movq	%rax, %rdi
	movl	$0, %eax
	call	fprintf@PLT
	movq	-8(%rbp), %rax
	movzwl	16(%rax), %eax
	movzwl	%ax, %eax
	movl	%eax, %edi
	call	ntohs@PLT
	movzwl	%ax, %edx
	movq	-40(%rbp), %rax
	movq	(%rax), %rax
	leaq	.LC35(%rip), %rsi
	movq	%rax, %rdi
	movl	$0, %eax
	call	fprintf@PLT
	movq	-8(%rbp), %rax
	movzwl	18(%rax), %eax
	movzwl	%ax, %edx
	movq	-40(%rbp), %rax
	movq	(%rax), %rax
	leaq	.LC36(%rip), %rsi
	movq	%rax, %rdi
	movl	$0, %eax
	call	fprintf@PLT
	movq	-40(%rbp), %rax
	movq	(%rax), %rax
	movq	%rax, %rsi
	movl	$10, %edi
	call	fputc@PLT
	movq	-40(%rbp), %rax
	movq	(%rax), %rax
	movq	%rax, %rcx
	movl	$58, %edx
	movl	$1, %esi
	leaq	.LC37(%rip), %rdi
	call	fwrite@PLT
	movq	-40(%rbp), %rax
	movq	(%rax), %rax
	movq	%rax, %rsi
	movl	$10, %edi
	call	fputc@PLT
	movq	-40(%rbp), %rax
	movq	(%rax), %rax
	movq	%rax, %rcx
	movl	$10, %edx
	movl	$1, %esi
	leaq	.LC10(%rip), %rdi
	call	fwrite@PLT
	movzwl	-22(%rbp), %edx
	movq	-48(%rbp), %rcx
	movq	-40(%rbp), %rax
	movq	%rcx, %rsi
	movq	%rax, %rdi
	call	_ZN14packetAnalyser9PrintDataEPhi
	movq	-40(%rbp), %rax
	movq	(%rax), %rax
	movq	%rax, %rcx
	movl	$11, %edx
	movl	$1, %esi
	leaq	.LC22(%rip), %rdi
	call	fwrite@PLT
	movq	-8(%rbp), %rax
	movzbl	12(%rax), %eax
	shrb	$4, %al
	movzbl	%al, %eax
	leal	0(,%rax,4), %edx
	movzwl	-22(%rbp), %ecx
	movq	-48(%rbp), %rax
	addq	%rax, %rcx
	movq	-40(%rbp), %rax
	movq	%rcx, %rsi
	movq	%rax, %rdi
	call	_ZN14packetAnalyser9PrintDataEPhi
	movq	-40(%rbp), %rax
	movq	(%rax), %rax
	movq	%rax, %rcx
	movl	$13, %edx
	movl	$1, %esi
	leaq	.LC38(%rip), %rdi
	call	fwrite@PLT
	movl	-52(%rbp), %eax
	subl	-20(%rbp), %eax
	movl	%eax, %edx
	movl	-20(%rbp), %eax
	movslq	%eax, %rcx
	movq	-48(%rbp), %rax
	addq	%rax, %rcx
	movq	-40(%rbp), %rax
	movq	%rcx, %rsi
	movq	%rax, %rdi
	call	_ZN14packetAnalyser9PrintDataEPhi
	movq	-40(%rbp), %rax
	movq	(%rax), %rax
	movq	%rax, %rcx
	movl	$60, %edx
	movl	$1, %esi
	leaq	.LC39(%rip), %rdi
	call	fwrite@PLT
	nop
	leave
	.cfi_def_cfa 7, 8
	ret
	.cfi_endproc
.LFE8192:
	.size	_ZN14packetAnalyser14printTCPPacketEPhi, .-_ZN14packetAnalyser14printTCPPacketEPhi
	.section	.rodata
	.align 8
.LC40:
	.string	"\n\n***********************UDP Packet*************************\n"
.LC41:
	.string	"\nUDP Header\n"
.LC42:
	.string	"   |-Source Port      : %d\n"
.LC43:
	.string	"   |-Destination Port : %d\n"
.LC44:
	.string	"   |-UDP Length       : %d\n"
.LC45:
	.string	"   |-UDP Checksum     : %d\n"
.LC46:
	.string	"UDP Header\n"
	.text
	.align 2
	.globl	_ZN14packetAnalyser14printUDPPacketEPhi
	.type	_ZN14packetAnalyser14printUDPPacketEPhi, @function
_ZN14packetAnalyser14printUDPPacketEPhi:
.LFB8193:
	.cfi_startproc
	pushq	%rbp
	.cfi_def_cfa_offset 16
	.cfi_offset 6, -16
	movq	%rsp, %rbp
	.cfi_def_cfa_register 6
	subq	$64, %rsp
	movq	%rdi, -40(%rbp)
	movq	%rsi, -48(%rbp)
	movl	%edx, -52(%rbp)
	movq	-48(%rbp), %rax
	addq	$14, %rax
	movq	%rax, -16(%rbp)
	movq	-16(%rbp), %rax
	movzbl	(%rax), %eax
	andl	$15, %eax
	movzbl	%al, %eax
	sall	$2, %eax
	movw	%ax, -22(%rbp)
	movzwl	-22(%rbp), %eax
	leaq	14(%rax), %rdx
	movq	-48(%rbp), %rax
	addq	%rdx, %rax
	movq	%rax, -8(%rbp)
	movzwl	-22(%rbp), %eax
	addl	$22, %eax
	movl	%eax, -20(%rbp)
	movq	-40(%rbp), %rax
	movq	(%rax), %rax
	movq	%rax, %rcx
	movl	$61, %edx
	movl	$1, %esi
	leaq	.LC40(%rip), %rdi
	call	fwrite@PLT
	movl	-52(%rbp), %edx
	movq	-48(%rbp), %rcx
	movq	-40(%rbp), %rax
	movq	%rcx, %rsi
	movq	%rax, %rdi
	call	_ZN14packetAnalyser13printIPHeaderEPhi
	movq	-40(%rbp), %rax
	movq	(%rax), %rax
	movq	%rax, %rcx
	movl	$12, %edx
	movl	$1, %esi
	leaq	.LC41(%rip), %rdi
	call	fwrite@PLT
	movq	-8(%rbp), %rax
	movzwl	(%rax), %eax
	movzwl	%ax, %eax
	movl	%eax, %edi
	call	ntohs@PLT
	movzwl	%ax, %edx
	movq	-40(%rbp), %rax
	movq	(%rax), %rax
	leaq	.LC42(%rip), %rsi
	movq	%rax, %rdi
	movl	$0, %eax
	call	fprintf@PLT
	movq	-8(%rbp), %rax
	movzwl	2(%rax), %eax
	movzwl	%ax, %eax
	movl	%eax, %edi
	call	ntohs@PLT
	movzwl	%ax, %edx
	movq	-40(%rbp), %rax
	movq	(%rax), %rax
	leaq	.LC43(%rip), %rsi
	movq	%rax, %rdi
	movl	$0, %eax
	call	fprintf@PLT
	movq	-8(%rbp), %rax
	movzwl	4(%rax), %eax
	movzwl	%ax, %eax
	movl	%eax, %edi
	call	ntohs@PLT
	movzwl	%ax, %edx
	movq	-40(%rbp), %rax
	movq	(%rax), %rax
	leaq	.LC44(%rip), %rsi
	movq	%rax, %rdi
	movl	$0, %eax
	call	fprintf@PLT
	movq	-8(%rbp), %rax
	movzwl	6(%rax), %eax
	movzwl	%ax, %eax
	movl	%eax, %edi
	call	ntohs@PLT
	movzwl	%ax, %edx
	movq	-40(%rbp), %rax
	movq	(%rax), %rax
	leaq	.LC45(%rip), %rsi
	movq	%rax, %rdi
	movl	$0, %eax
	call	fprintf@PLT
	movq	-40(%rbp), %rax
	movq	(%rax), %rax
	movq	%rax, %rsi
	movl	$10, %edi
	call	fputc@PLT
	movq	-40(%rbp), %rax
	movq	(%rax), %rax
	movq	%rax, %rcx
	movl	$10, %edx
	movl	$1, %esi
	leaq	.LC10(%rip), %rdi
	call	fwrite@PLT
	movzwl	-22(%rbp), %edx
	movq	-48(%rbp), %rcx
	movq	-40(%rbp), %rax
	movq	%rcx, %rsi
	movq	%rax, %rdi
	call	_ZN14packetAnalyser9PrintDataEPhi
	movq	-40(%rbp), %rax
	movq	(%rax), %rax
	movq	%rax, %rcx
	movl	$11, %edx
	movl	$1, %esi
	leaq	.LC46(%rip), %rdi
	call	fwrite@PLT
	movzwl	-22(%rbp), %edx
	movq	-48(%rbp), %rax
	leaq	(%rdx,%rax), %rcx
	movq	-40(%rbp), %rax
	movl	$8, %edx
	movq	%rcx, %rsi
	movq	%rax, %rdi
	call	_ZN14packetAnalyser9PrintDataEPhi
	movq	-40(%rbp), %rax
	movq	(%rax), %rax
	movq	%rax, %rcx
	movl	$13, %edx
	movl	$1, %esi
	leaq	.LC38(%rip), %rdi
	call	fwrite@PLT
	movl	-52(%rbp), %eax
	subl	-20(%rbp), %eax
	movl	%eax, %edx
	movl	-20(%rbp), %eax
	movslq	%eax, %rcx
	movq	-48(%rbp), %rax
	addq	%rax, %rcx
	movq	-40(%rbp), %rax
	movq	%rcx, %rsi
	movq	%rax, %rdi
	call	_ZN14packetAnalyser9PrintDataEPhi
	movq	-40(%rbp), %rax
	movq	(%rax), %rax
	movq	%rax, %rcx
	movl	$60, %edx
	movl	$1, %esi
	leaq	.LC39(%rip), %rdi
	call	fwrite@PLT
	nop
	leave
	.cfi_def_cfa 7, 8
	ret
	.cfi_endproc
.LFE8193:
	.size	_ZN14packetAnalyser14printUDPPacketEPhi, .-_ZN14packetAnalyser14printUDPPacketEPhi
	.section	.rodata
	.align 8
.LC47:
	.string	"\n\n***********************ICMP Packet*************************\n"
.LC48:
	.string	"ICMP Header\n"
.LC49:
	.string	"   |-Type : %d"
.LC50:
	.string	"  (TTL Expired)\n"
.LC51:
	.string	"  (ICMP Echo Reply)\n"
.LC52:
	.string	"   |-Code : %d\n"
	.text
	.align 2
	.globl	_ZN14packetAnalyser15printICMPPacketEPhi
	.type	_ZN14packetAnalyser15printICMPPacketEPhi, @function
_ZN14packetAnalyser15printICMPPacketEPhi:
.LFB8194:
	.cfi_startproc
	pushq	%rbp
	.cfi_def_cfa_offset 16
	.cfi_offset 6, -16
	movq	%rsp, %rbp
	.cfi_def_cfa_register 6
	subq	$64, %rsp
	movq	%rdi, -40(%rbp)
	movq	%rsi, -48(%rbp)
	movl	%edx, -52(%rbp)
	movq	-48(%rbp), %rax
	addq	$14, %rax
	movq	%rax, -16(%rbp)
	movq	-16(%rbp), %rax
	movzbl	(%rax), %eax
	andl	$15, %eax
	movzbl	%al, %eax
	sall	$2, %eax
	movw	%ax, -22(%rbp)
	movzwl	-22(%rbp), %eax
	leaq	14(%rax), %rdx
	movq	-48(%rbp), %rax
	addq	%rdx, %rax
	movq	%rax, -8(%rbp)
	movzwl	-22(%rbp), %eax
	addl	$22, %eax
	movl	%eax, -20(%rbp)
	movq	-40(%rbp), %rax
	movq	(%rax), %rax
	movq	%rax, %rcx
	movl	$62, %edx
	movl	$1, %esi
	leaq	.LC47(%rip), %rdi
	call	fwrite@PLT
	movl	-52(%rbp), %edx
	movq	-48(%rbp), %rcx
	movq	-40(%rbp), %rax
	movq	%rcx, %rsi
	movq	%rax, %rdi
	call	_ZN14packetAnalyser13printIPHeaderEPhi
	movq	-40(%rbp), %rax
	movq	(%rax), %rax
	movq	%rax, %rsi
	movl	$10, %edi
	call	fputc@PLT
	movq	-40(%rbp), %rax
	movq	(%rax), %rax
	movq	%rax, %rcx
	movl	$12, %edx
	movl	$1, %esi
	leaq	.LC48(%rip), %rdi
	call	fwrite@PLT
	movq	-8(%rbp), %rax
	movzbl	(%rax), %eax
	movzbl	%al, %edx
	movq	-40(%rbp), %rax
	movq	(%rax), %rax
	leaq	.LC49(%rip), %rsi
	movq	%rax, %rdi
	movl	$0, %eax
	call	fprintf@PLT
	movq	-8(%rbp), %rax
	movzbl	(%rax), %eax
	cmpb	$11, %al
	jne	.L48
	movq	-40(%rbp), %rax
	movq	(%rax), %rax
	movq	%rax, %rcx
	movl	$16, %edx
	movl	$1, %esi
	leaq	.LC50(%rip), %rdi
	call	fwrite@PLT
	jmp	.L49
.L48:
	movq	-8(%rbp), %rax
	movzbl	(%rax), %eax
	testb	%al, %al
	jne	.L49
	movq	-40(%rbp), %rax
	movq	(%rax), %rax
	movq	%rax, %rcx
	movl	$20, %edx
	movl	$1, %esi
	leaq	.LC51(%rip), %rdi
	call	fwrite@PLT
.L49:
	movq	-8(%rbp), %rax
	movzbl	1(%rax), %eax
	movzbl	%al, %edx
	movq	-40(%rbp), %rax
	movq	(%rax), %rax
	leaq	.LC52(%rip), %rsi
	movq	%rax, %rdi
	movl	$0, %eax
	call	fprintf@PLT
	movq	-8(%rbp), %rax
	movzwl	2(%rax), %eax
	movzwl	%ax, %eax
	movl	%eax, %edi
	call	ntohs@PLT
	movzwl	%ax, %edx
	movq	-40(%rbp), %rax
	movq	(%rax), %rax
	leaq	.LC18(%rip), %rsi
	movq	%rax, %rdi
	movl	$0, %eax
	call	fprintf@PLT
	movq	-40(%rbp), %rax
	movq	(%rax), %rax
	movq	%rax, %rsi
	movl	$10, %edi
	call	fputc@PLT
	movq	-40(%rbp), %rax
	movq	(%rax), %rax
	movq	%rax, %rcx
	movl	$10, %edx
	movl	$1, %esi
	leaq	.LC10(%rip), %rdi
	call	fwrite@PLT
	movzwl	-22(%rbp), %edx
	movq	-48(%rbp), %rcx
	movq	-40(%rbp), %rax
	movq	%rcx, %rsi
	movq	%rax, %rdi
	call	_ZN14packetAnalyser9PrintDataEPhi
	movq	-40(%rbp), %rax
	movq	(%rax), %rax
	movq	%rax, %rcx
	movl	$11, %edx
	movl	$1, %esi
	leaq	.LC46(%rip), %rdi
	call	fwrite@PLT
	movzwl	-22(%rbp), %edx
	movq	-48(%rbp), %rax
	leaq	(%rdx,%rax), %rcx
	movq	-40(%rbp), %rax
	movl	$8, %edx
	movq	%rcx, %rsi
	movq	%rax, %rdi
	call	_ZN14packetAnalyser9PrintDataEPhi
	movq	-40(%rbp), %rax
	movq	(%rax), %rax
	movq	%rax, %rcx
	movl	$13, %edx
	movl	$1, %esi
	leaq	.LC38(%rip), %rdi
	call	fwrite@PLT
	movl	-52(%rbp), %eax
	subl	-20(%rbp), %eax
	movl	%eax, %edx
	movl	-20(%rbp), %eax
	movslq	%eax, %rcx
	movq	-48(%rbp), %rax
	addq	%rax, %rcx
	movq	-40(%rbp), %rax
	movq	%rcx, %rsi
	movq	%rax, %rdi
	call	_ZN14packetAnalyser9PrintDataEPhi
	movq	-40(%rbp), %rax
	movq	(%rax), %rax
	movq	%rax, %rcx
	movl	$60, %edx
	movl	$1, %esi
	leaq	.LC39(%rip), %rdi
	call	fwrite@PLT
	nop
	leave
	.cfi_def_cfa 7, 8
	ret
	.cfi_endproc
.LFE8194:
	.size	_ZN14packetAnalyser15printICMPPacketEPhi, .-_ZN14packetAnalyser15printICMPPacketEPhi
	.section	.rodata
.LC53:
	.string	"         "
.LC54:
	.string	"   "
.LC55:
	.string	" %02X"
	.text
	.align 2
	.globl	_ZN14packetAnalyser9PrintDataEPhi
	.type	_ZN14packetAnalyser9PrintDataEPhi, @function
_ZN14packetAnalyser9PrintDataEPhi:
.LFB8195:
	.cfi_startproc
	pushq	%rbp
	.cfi_def_cfa_offset 16
	.cfi_offset 6, -16
	movq	%rsp, %rbp
	.cfi_def_cfa_register 6
	subq	$48, %rsp
	movq	%rdi, -24(%rbp)
	movq	%rsi, -32(%rbp)
	movl	%edx, -36(%rbp)
	movl	$0, -8(%rbp)
.L65:
	movl	-8(%rbp), %eax
	cmpl	-36(%rbp), %eax
	jge	.L66
	cmpl	$0, -8(%rbp)
	je	.L52
	movl	-8(%rbp), %eax
	andl	$15, %eax
	testl	%eax, %eax
	jne	.L52
	movq	-24(%rbp), %rax
	movq	(%rax), %rax
	movq	%rax, %rcx
	movl	$9, %edx
	movl	$1, %esi
	leaq	.LC53(%rip), %rdi
	call	fwrite@PLT
	movl	-8(%rbp), %eax
	subl	$16, %eax
	movl	%eax, -4(%rbp)
.L56:
	movl	-4(%rbp), %eax
	cmpl	-8(%rbp), %eax
	jge	.L53
	movl	-4(%rbp), %eax
	movslq	%eax, %rdx
	movq	-32(%rbp), %rax
	addq	%rdx, %rax
	movzbl	(%rax), %eax
	cmpb	$31, %al
	jbe	.L54
	movl	-4(%rbp), %eax
	movslq	%eax, %rdx
	movq	-32(%rbp), %rax
	addq	%rdx, %rax
	movzbl	(%rax), %eax
	cmpb	$-128, %al
	ja	.L54
	movl	-4(%rbp), %eax
	movslq	%eax, %rdx
	movq	-32(%rbp), %rax
	addq	%rdx, %rax
	movzbl	(%rax), %eax
	movzbl	%al, %eax
	movq	-24(%rbp), %rdx
	movq	(%rdx), %rdx
	movq	%rdx, %rsi
	movl	%eax, %edi
	call	fputc@PLT
	jmp	.L55
.L54:
	movq	-24(%rbp), %rax
	movq	(%rax), %rax
	movq	%rax, %rsi
	movl	$46, %edi
	call	fputc@PLT
.L55:
	addl	$1, -4(%rbp)
	jmp	.L56
.L53:
	movq	-24(%rbp), %rax
	movq	(%rax), %rax
	movq	%rax, %rsi
	movl	$10, %edi
	call	fputc@PLT
.L52:
	movl	-8(%rbp), %eax
	andl	$15, %eax
	testl	%eax, %eax
	jne	.L57
	movq	-24(%rbp), %rax
	movq	(%rax), %rax
	movq	%rax, %rcx
	movl	$3, %edx
	movl	$1, %esi
	leaq	.LC54(%rip), %rdi
	call	fwrite@PLT
.L57:
	movl	-8(%rbp), %eax
	movslq	%eax, %rdx
	movq	-32(%rbp), %rax
	addq	%rdx, %rax
	movzbl	(%rax), %eax
	movzbl	%al, %edx
	movq	-24(%rbp), %rax
	movq	(%rax), %rax
	leaq	.LC55(%rip), %rsi
	movq	%rax, %rdi
	movl	$0, %eax
	call	fprintf@PLT
	movl	-36(%rbp), %eax
	subl	$1, %eax
	cmpl	%eax, -8(%rbp)
	jne	.L58
	movl	$0, -4(%rbp)
.L60:
	movl	-8(%rbp), %eax
	cltd
	shrl	$28, %edx
	addl	%edx, %eax
	andl	$15, %eax
	subl	%edx, %eax
	movl	$15, %edx
	subl	%eax, %edx
	movl	%edx, %eax
	cmpl	%eax, -4(%rbp)
	jge	.L59
	movq	-24(%rbp), %rax
	movq	(%rax), %rax
	movq	%rax, %rcx
	movl	$3, %edx
	movl	$1, %esi
	leaq	.LC54(%rip), %rdi
	call	fwrite@PLT
	addl	$1, -4(%rbp)
	jmp	.L60
.L59:
	movq	-24(%rbp), %rax
	movq	(%rax), %rax
	movq	%rax, %rcx
	movl	$9, %edx
	movl	$1, %esi
	leaq	.LC53(%rip), %rdi
	call	fwrite@PLT
	movl	-8(%rbp), %eax
	cltd
	shrl	$28, %edx
	addl	%edx, %eax
	andl	$15, %eax
	subl	%edx, %eax
	movl	%eax, %edx
	movl	-8(%rbp), %eax
	subl	%edx, %eax
	movl	%eax, -4(%rbp)
.L64:
	movl	-4(%rbp), %eax
	cmpl	-8(%rbp), %eax
	jg	.L61
	movl	-4(%rbp), %eax
	movslq	%eax, %rdx
	movq	-32(%rbp), %rax
	addq	%rdx, %rax
	movzbl	(%rax), %eax
	cmpb	$31, %al
	jbe	.L62
	movl	-4(%rbp), %eax
	movslq	%eax, %rdx
	movq	-32(%rbp), %rax
	addq	%rdx, %rax
	movzbl	(%rax), %eax
	cmpb	$-128, %al
	ja	.L62
	movl	-4(%rbp), %eax
	movslq	%eax, %rdx
	movq	-32(%rbp), %rax
	addq	%rdx, %rax
	movzbl	(%rax), %eax
	movzbl	%al, %eax
	movq	-24(%rbp), %rdx
	movq	(%rdx), %rdx
	movq	%rdx, %rsi
	movl	%eax, %edi
	call	fputc@PLT
	jmp	.L63
.L62:
	movq	-24(%rbp), %rax
	movq	(%rax), %rax
	movq	%rax, %rsi
	movl	$46, %edi
	call	fputc@PLT
.L63:
	addl	$1, -4(%rbp)
	jmp	.L64
.L61:
	movq	-24(%rbp), %rax
	movq	(%rax), %rax
	movq	%rax, %rsi
	movl	$10, %edi
	call	fputc@PLT
.L58:
	addl	$1, -8(%rbp)
	jmp	.L65
.L66:
	nop
	leave
	.cfi_def_cfa 7, 8
	ret
	.cfi_endproc
.LFE8195:
	.size	_ZN14packetAnalyser9PrintDataEPhi, .-_ZN14packetAnalyser9PrintDataEPhi
	.section	.rodata
.LC56:
	.string	"\nSending: "
	.section	.text._ZN10echoServer9runServerEv,"axG",@progbits,_ZN10echoServer9runServerEv,comdat
	.align 2
	.weak	_ZN10echoServer9runServerEv
	.type	_ZN10echoServer9runServerEv, @function
_ZN10echoServer9runServerEv:
.LFB8196:
	.cfi_startproc
	pushq	%rbp
	.cfi_def_cfa_offset 16
	.cfi_offset 6, -16
	movq	%rsp, %rbp
	.cfi_def_cfa_register 6
	subq	$16, %rsp
	movq	%rdi, -8(%rbp)
	movl	$0, %edx
	movl	$1, %esi
	movl	$2, %edi
	call	socket@PLT
	movl	%eax, %edx
	movq	-8(%rbp), %rax
	movl	%edx, 100(%rax)
	movq	-8(%rbp), %rax
	addq	$108, %rax
	movl	$16, %esi
	movq	%rax, %rdi
	call	bzero@PLT
	movq	-8(%rbp), %rax
	movw	$2, 108(%rax)
	movl	$0, %edi
	call	htons@PLT
	movzwl	%ax, %edx
	movq	-8(%rbp), %rax
	movl	%edx, 112(%rax)
	movl	$1234, %edi
	call	htons@PLT
	movl	%eax, %edx
	movq	-8(%rbp), %rax
	movw	%dx, 110(%rax)
	movq	-8(%rbp), %rax
	leaq	108(%rax), %rcx
	movq	-8(%rbp), %rax
	movl	100(%rax), %eax
	movl	$16, %edx
	movq	%rcx, %rsi
	movl	%eax, %edi
	call	bind@PLT
	movq	-8(%rbp), %rax
	movl	100(%rax), %eax
	movl	$10, %esi
	movl	%eax, %edi
	call	listen@PLT
	movq	-8(%rbp), %rax
	movl	100(%rax), %eax
	movl	$0, %edx
	movl	$0, %esi
	movl	%eax, %edi
	call	accept@PLT
	movl	%eax, %edx
	movq	-8(%rbp), %rax
	movl	%edx, 104(%rax)
.L68:
	movq	-8(%rbp), %rax
	movl	$100, %esi
	movq	%rax, %rdi
	call	bzero@PLT
	movq	-8(%rbp), %rcx
	movq	-8(%rbp), %rax
	movl	104(%rax), %eax
	movl	$100, %edx
	movq	%rcx, %rsi
	movl	%eax, %edi
	call	read@PLT
	leaq	.LC56(%rip), %rsi
	leaq	_ZSt4cout(%rip), %rdi
	call	_ZStlsISt11char_traitsIcEERSt13basic_ostreamIcT_ES5_PKc@PLT
	movq	%rax, %rdx
	movq	-8(%rbp), %rax
	movq	%rax, %rsi
	movq	%rdx, %rdi
	call	_ZStlsISt11char_traitsIcEERSt13basic_ostreamIcT_ES5_PKc@PLT
	movq	-8(%rbp), %rax
	movq	%rax, %rdi
	call	strlen@PLT
	leaq	1(%rax), %rdx
	movq	-8(%rbp), %rcx
	movq	-8(%rbp), %rax
	movl	104(%rax), %eax
	movq	%rcx, %rsi
	movl	%eax, %edi
	call	write@PLT
	jmp	.L68
	.cfi_endproc
.LFE8196:
	.size	_ZN10echoServer9runServerEv, .-_ZN10echoServer9runServerEv
	.section	.rodata
	.align 8
.LC57:
	.string	"\t'####:'########:::'#######::'##::: ##:"
	.align 8
.LC58:
	.string	"\t. ##:: ##.... ##:'##.... ##: ###:: ##:"
	.align 8
.LC59:
	.string	"\t: ##:: ##:::: ##: ##:::: ##: ####: ##:"
	.align 8
.LC60:
	.string	"\t: ##:: ########:: ##:::: ##: ## ## ##:"
	.align 8
.LC61:
	.string	"\t: ##:: ##.. ##::: ##:::: ##: ##. ####:"
	.align 8
.LC62:
	.string	"\t: ##:: ##::. ##:: ##:::: ##: ##:. ###:"
	.align 8
.LC63:
	.string	"\t'####: ##:::. ##:. #######:: ##::. ##:"
	.align 8
.LC64:
	.string	"\t....::..:::::..:::.......:::..::::..::"
	.align 8
.LC65:
	.string	"\t...... Alexander Roque Rodrigues ....."
	.align 8
.LC66:
	.string	"\t.......... Omkar Shripad Modak ......."
	.align 8
.LC67:
	.string	"\t......................................\n"
	.text
	.align 2
	.globl	_ZN11UIinterface9printLogoEv
	.type	_ZN11UIinterface9printLogoEv, @function
_ZN11UIinterface9printLogoEv:
.LFB8197:
	.cfi_startproc
	pushq	%rbp
	.cfi_def_cfa_offset 16
	.cfi_offset 6, -16
	movq	%rsp, %rbp
	.cfi_def_cfa_register 6
	subq	$16, %rsp
	movq	%rdi, -8(%rbp)
	movq	_ZSt4endlIcSt11char_traitsIcEERSt13basic_ostreamIT_T0_ES6_@GOTPCREL(%rip), %rax
	movq	%rax, %rsi
	leaq	_ZSt4cout(%rip), %rdi
	call	_ZNSolsEPFRSoS_E@PLT
	leaq	.LC57(%rip), %rsi
	leaq	_ZSt4cout(%rip), %rdi
	call	_ZStlsISt11char_traitsIcEERSt13basic_ostreamIcT_ES5_PKc@PLT
	movq	%rax, %rdx
	movq	_ZSt4endlIcSt11char_traitsIcEERSt13basic_ostreamIT_T0_ES6_@GOTPCREL(%rip), %rax
	movq	%rax, %rsi
	movq	%rdx, %rdi
	call	_ZNSolsEPFRSoS_E@PLT
	leaq	.LC58(%rip), %rsi
	leaq	_ZSt4cout(%rip), %rdi
	call	_ZStlsISt11char_traitsIcEERSt13basic_ostreamIcT_ES5_PKc@PLT
	movq	%rax, %rdx
	movq	_ZSt4endlIcSt11char_traitsIcEERSt13basic_ostreamIT_T0_ES6_@GOTPCREL(%rip), %rax
	movq	%rax, %rsi
	movq	%rdx, %rdi
	call	_ZNSolsEPFRSoS_E@PLT
	leaq	.LC59(%rip), %rsi
	leaq	_ZSt4cout(%rip), %rdi
	call	_ZStlsISt11char_traitsIcEERSt13basic_ostreamIcT_ES5_PKc@PLT
	movq	%rax, %rdx
	movq	_ZSt4endlIcSt11char_traitsIcEERSt13basic_ostreamIT_T0_ES6_@GOTPCREL(%rip), %rax
	movq	%rax, %rsi
	movq	%rdx, %rdi
	call	_ZNSolsEPFRSoS_E@PLT
	leaq	.LC60(%rip), %rsi
	leaq	_ZSt4cout(%rip), %rdi
	call	_ZStlsISt11char_traitsIcEERSt13basic_ostreamIcT_ES5_PKc@PLT
	movq	%rax, %rdx
	movq	_ZSt4endlIcSt11char_traitsIcEERSt13basic_ostreamIT_T0_ES6_@GOTPCREL(%rip), %rax
	movq	%rax, %rsi
	movq	%rdx, %rdi
	call	_ZNSolsEPFRSoS_E@PLT
	leaq	.LC61(%rip), %rsi
	leaq	_ZSt4cout(%rip), %rdi
	call	_ZStlsISt11char_traitsIcEERSt13basic_ostreamIcT_ES5_PKc@PLT
	movq	%rax, %rdx
	movq	_ZSt4endlIcSt11char_traitsIcEERSt13basic_ostreamIT_T0_ES6_@GOTPCREL(%rip), %rax
	movq	%rax, %rsi
	movq	%rdx, %rdi
	call	_ZNSolsEPFRSoS_E@PLT
	leaq	.LC62(%rip), %rsi
	leaq	_ZSt4cout(%rip), %rdi
	call	_ZStlsISt11char_traitsIcEERSt13basic_ostreamIcT_ES5_PKc@PLT
	movq	%rax, %rdx
	movq	_ZSt4endlIcSt11char_traitsIcEERSt13basic_ostreamIT_T0_ES6_@GOTPCREL(%rip), %rax
	movq	%rax, %rsi
	movq	%rdx, %rdi
	call	_ZNSolsEPFRSoS_E@PLT
	leaq	.LC63(%rip), %rsi
	leaq	_ZSt4cout(%rip), %rdi
	call	_ZStlsISt11char_traitsIcEERSt13basic_ostreamIcT_ES5_PKc@PLT
	movq	%rax, %rdx
	movq	_ZSt4endlIcSt11char_traitsIcEERSt13basic_ostreamIT_T0_ES6_@GOTPCREL(%rip), %rax
	movq	%rax, %rsi
	movq	%rdx, %rdi
	call	_ZNSolsEPFRSoS_E@PLT
	leaq	.LC64(%rip), %rsi
	leaq	_ZSt4cout(%rip), %rdi
	call	_ZStlsISt11char_traitsIcEERSt13basic_ostreamIcT_ES5_PKc@PLT
	movq	%rax, %rdx
	movq	_ZSt4endlIcSt11char_traitsIcEERSt13basic_ostreamIT_T0_ES6_@GOTPCREL(%rip), %rax
	movq	%rax, %rsi
	movq	%rdx, %rdi
	call	_ZNSolsEPFRSoS_E@PLT
	leaq	.LC65(%rip), %rsi
	leaq	_ZSt4cout(%rip), %rdi
	call	_ZStlsISt11char_traitsIcEERSt13basic_ostreamIcT_ES5_PKc@PLT
	movq	%rax, %rdx
	movq	_ZSt4endlIcSt11char_traitsIcEERSt13basic_ostreamIT_T0_ES6_@GOTPCREL(%rip), %rax
	movq	%rax, %rsi
	movq	%rdx, %rdi
	call	_ZNSolsEPFRSoS_E@PLT
	leaq	.LC66(%rip), %rsi
	leaq	_ZSt4cout(%rip), %rdi
	call	_ZStlsISt11char_traitsIcEERSt13basic_ostreamIcT_ES5_PKc@PLT
	movq	%rax, %rdx
	movq	_ZSt4endlIcSt11char_traitsIcEERSt13basic_ostreamIT_T0_ES6_@GOTPCREL(%rip), %rax
	movq	%rax, %rsi
	movq	%rdx, %rdi
	call	_ZNSolsEPFRSoS_E@PLT
	leaq	.LC67(%rip), %rsi
	leaq	_ZSt4cout(%rip), %rdi
	call	_ZStlsISt11char_traitsIcEERSt13basic_ostreamIcT_ES5_PKc@PLT
	movq	%rax, %rdx
	movq	_ZSt4endlIcSt11char_traitsIcEERSt13basic_ostreamIT_T0_ES6_@GOTPCREL(%rip), %rax
	movq	%rax, %rsi
	movq	%rdx, %rdi
	call	_ZNSolsEPFRSoS_E@PLT
	nop
	leave
	.cfi_def_cfa 7, 8
	ret
	.cfi_endproc
.LFE8197:
	.size	_ZN11UIinterface9printLogoEv, .-_ZN11UIinterface9printLogoEv
	.section	.text._ZN14packetAnalyserC2Ev,"axG",@progbits,_ZN14packetAnalyserC5Ev,comdat
	.align 2
	.weak	_ZN14packetAnalyserC2Ev
	.type	_ZN14packetAnalyserC2Ev, @function
_ZN14packetAnalyserC2Ev:
.LFB8200:
	.cfi_startproc
	pushq	%rbp
	.cfi_def_cfa_offset 16
	.cfi_offset 6, -16
	movq	%rsp, %rbp
	.cfi_def_cfa_register 6
	subq	$16, %rsp
	movq	%rdi, -8(%rbp)
	movq	-8(%rbp), %rax
	movl	$0, 40(%rax)
	movq	-8(%rbp), %rax
	movl	$0, 44(%rax)
	movq	-8(%rbp), %rax
	movl	$0, 48(%rax)
	movq	-8(%rbp), %rax
	movl	$0, 52(%rax)
	movq	-8(%rbp), %rax
	movl	$0, 56(%rax)
	movq	-8(%rbp), %rax
	movl	$0, 60(%rax)
	movl	$65536, %edi
	call	malloc@PLT
	movq	%rax, %rdx
	movq	-8(%rbp), %rax
	movq	%rdx, 96(%rax)
	nop
	leave
	.cfi_def_cfa 7, 8
	ret
	.cfi_endproc
.LFE8200:
	.size	_ZN14packetAnalyserC2Ev, .-_ZN14packetAnalyserC2Ev
	.weak	_ZN14packetAnalyserC1Ev
	.set	_ZN14packetAnalyserC1Ev,_ZN14packetAnalyserC2Ev
	.section	.rodata
.LC68:
	.string	"Server @ thread ID: "
.LC69:
	.string	"Packet Analyser @ thread ID: "
	.text
	.align 2
	.globl	_ZN11UIinterface11startServerEv
	.type	_ZN11UIinterface11startServerEv, @function
_ZN11UIinterface11startServerEv:
.LFB8198:
	.cfi_startproc
	.cfi_personality 0x9b,DW.ref.__gxx_personality_v0
	.cfi_lsda 0x1b,.LLSDA8198
	pushq	%rbp
	.cfi_def_cfa_offset 16
	.cfi_offset 6, -16
	movq	%rsp, %rbp
	.cfi_def_cfa_register 6
	pushq	%rbx
	subq	$216, %rsp
	.cfi_offset 3, -24
	movq	%rdi, -216(%rbp)
	movq	%fs:40, %rax
	movq	%rax, -24(%rbp)
	xorl	%eax, %eax
	call	_ZNSt6chrono3_V212system_clock3nowEv@PLT
	movq	%rax, -200(%rbp)
	leaq	-200(%rbp), %rax
	movq	%rax, %rdi
	call	_ZNSt6chrono3_V212system_clock9to_time_tERKNS_10time_pointIS1_NS_8durationIlSt5ratioILl1ELl1000000000EEEEEE
	movq	%rax, -192(%rbp)
	leaq	-192(%rbp), %rax
	movq	%rax, %rdi
	call	ctime@PLT
	movq	%rax, %rsi
	leaq	_ZSt4cout(%rip), %rdi
.LEHB0:
	call	_ZStlsISt11char_traitsIcEERSt13basic_ostreamIcT_ES5_PKc@PLT
.LEHE0:
	movq	-216(%rbp), %rax
	leaq	232(%rax), %rbx
	leaq	-160(%rbp), %rdx
	movl	$0, %eax
	movl	$15, %ecx
	movq	%rdx, %rdi
	rep stosq
	movq	%rdi, %rdx
	movl	%eax, (%rdx)
	addq	$4, %rdx
	leaq	_ZN10echoServer9runServerEv(%rip), %rax
	movq	%rax, -176(%rbp)
	movq	$0, -168(%rbp)
	leaq	-160(%rbp), %rdx
	leaq	-176(%rbp), %rcx
	leaq	-184(%rbp), %rax
	movq	%rcx, %rsi
	movq	%rax, %rdi
.LEHB1:
	call	_ZNSt6threadC1IM10echoServerFvvEJS1_EEEOT_DpOT0_
.LEHE1:
	leaq	-184(%rbp), %rax
	movq	%rax, %rsi
	movq	%rbx, %rdi
.LEHB2:
	call	_ZNSt6vectorISt6threadSaIS0_EE9push_backEOS0_
.LEHE2:
	leaq	-184(%rbp), %rax
	movq	%rax, %rdi
	call	_ZNSt6threadD1Ev
	leaq	.LC68(%rip), %rsi
	leaq	_ZSt4cout(%rip), %rdi
.LEHB3:
	call	_ZStlsISt11char_traitsIcEERSt13basic_ostreamIcT_ES5_PKc@PLT
	movq	%rax, %rbx
	movq	-216(%rbp), %rax
	addq	$232, %rax
	movl	$0, %esi
	movq	%rax, %rdi
	call	_ZNSt6vectorISt6threadSaIS0_EEixEm
	movq	%rax, %rdi
	call	_ZNKSt6thread6get_idEv
	movq	%rax, %rsi
	movq	%rbx, %rdi
	call	_ZStlsIcSt11char_traitsIcEERSt13basic_ostreamIT_T0_ES6_NSt6thread2idE
	movq	%rax, %rdx
	movq	_ZSt4endlIcSt11char_traitsIcEERSt13basic_ostreamIT_T0_ES6_@GOTPCREL(%rip), %rax
	movq	%rax, %rsi
	movq	%rdx, %rdi
	call	_ZNSolsEPFRSoS_E@PLT
.LEHE3:
	movq	-216(%rbp), %rax
	leaq	232(%rax), %rbx
	leaq	-160(%rbp), %rdx
	movl	$0, %eax
	movl	$13, %ecx
	movq	%rdx, %rdi
	rep stosq
	leaq	-160(%rbp), %rax
	movq	%rax, %rdi
	call	_ZN14packetAnalyserC1Ev
	leaq	_ZN14packetAnalyser9runPacketEv(%rip), %rax
	movq	%rax, -176(%rbp)
	movq	$0, -168(%rbp)
	leaq	-160(%rbp), %rdx
	leaq	-176(%rbp), %rcx
	leaq	-184(%rbp), %rax
	movq	%rcx, %rsi
	movq	%rax, %rdi
.LEHB4:
	call	_ZNSt6threadC1IM14packetAnalyserFvvEJS1_EEEOT_DpOT0_
.LEHE4:
	leaq	-184(%rbp), %rax
	movq	%rax, %rsi
	movq	%rbx, %rdi
.LEHB5:
	call	_ZNSt6vectorISt6threadSaIS0_EE9push_backEOS0_
.LEHE5:
	leaq	-184(%rbp), %rax
	movq	%rax, %rdi
	call	_ZNSt6threadD1Ev
	leaq	.LC69(%rip), %rsi
	leaq	_ZSt4cout(%rip), %rdi
.LEHB6:
	call	_ZStlsISt11char_traitsIcEERSt13basic_ostreamIcT_ES5_PKc@PLT
	movq	%rax, %rbx
	movq	-216(%rbp), %rax
	addq	$232, %rax
	movl	$1, %esi
	movq	%rax, %rdi
	call	_ZNSt6vectorISt6threadSaIS0_EEixEm
	movq	%rax, %rdi
	call	_ZNKSt6thread6get_idEv
	movq	%rax, %rsi
	movq	%rbx, %rdi
	call	_ZStlsIcSt11char_traitsIcEERSt13basic_ostreamIT_T0_ES6_NSt6thread2idE
	movq	%rax, %rdx
	movq	_ZSt4endlIcSt11char_traitsIcEERSt13basic_ostreamIT_T0_ES6_@GOTPCREL(%rip), %rax
	movq	%rax, %rsi
	movq	%rdx, %rdi
	call	_ZNSolsEPFRSoS_E@PLT
	nop
	movq	-24(%rbp), %rax
	xorq	%fs:40, %rax
	je	.L76
	jmp	.L81
.L78:
	movq	%rax, %rbx
	leaq	-184(%rbp), %rax
	movq	%rax, %rdi
	call	_ZNSt6threadD1Ev
	movq	%rbx, %rax
	jmp	.L73
.L77:
.L73:
	movq	%rax, %rdi
	call	_Unwind_Resume@PLT
.L80:
	movq	%rax, %rbx
	leaq	-184(%rbp), %rax
	movq	%rax, %rdi
	call	_ZNSt6threadD1Ev
	movq	%rbx, %rax
	jmp	.L75
.L79:
.L75:
	movq	%rax, %rdi
	call	_Unwind_Resume@PLT
.LEHE6:
.L81:
	call	__stack_chk_fail@PLT
.L76:
	addq	$216, %rsp
	popq	%rbx
	popq	%rbp
	.cfi_def_cfa 7, 8
	ret
	.cfi_endproc
.LFE8198:
	.globl	__gxx_personality_v0
	.section	.gcc_except_table,"a",@progbits
.LLSDA8198:
	.byte	0xff
	.byte	0xff
	.byte	0x1
	.uleb128 .LLSDACSE8198-.LLSDACSB8198
.LLSDACSB8198:
	.uleb128 .LEHB0-.LFB8198
	.uleb128 .LEHE0-.LEHB0
	.uleb128 0
	.uleb128 0
	.uleb128 .LEHB1-.LFB8198
	.uleb128 .LEHE1-.LEHB1
	.uleb128 .L77-.LFB8198
	.uleb128 0
	.uleb128 .LEHB2-.LFB8198
	.uleb128 .LEHE2-.LEHB2
	.uleb128 .L78-.LFB8198
	.uleb128 0
	.uleb128 .LEHB3-.LFB8198
	.uleb128 .LEHE3-.LEHB3
	.uleb128 0
	.uleb128 0
	.uleb128 .LEHB4-.LFB8198
	.uleb128 .LEHE4-.LEHB4
	.uleb128 .L79-.LFB8198
	.uleb128 0
	.uleb128 .LEHB5-.LFB8198
	.uleb128 .LEHE5-.LEHB5
	.uleb128 .L80-.LFB8198
	.uleb128 0
	.uleb128 .LEHB6-.LFB8198
	.uleb128 .LEHE6-.LEHB6
	.uleb128 0
	.uleb128 0
.LLSDACSE8198:
	.text
	.size	_ZN11UIinterface11startServerEv, .-_ZN11UIinterface11startServerEv
	.align 2
	.globl	_ZN11UIinterface13consolePromptEv
	.type	_ZN11UIinterface13consolePromptEv, @function
_ZN11UIinterface13consolePromptEv:
.LFB8202:
	.cfi_startproc
	.cfi_personality 0x9b,DW.ref.__gxx_personality_v0
	.cfi_lsda 0x1b,.LLSDA8202
	pushq	%rbp
	.cfi_def_cfa_offset 16
	.cfi_offset 6, -16
	movq	%rsp, %rbp
	.cfi_def_cfa_register 6
	pushq	%rbx
	subq	$104, %rsp
	.cfi_offset 3, -24
	movq	%rdi, -104(%rbp)
	movq	%fs:40, %rax
	movq	%rax, -24(%rbp)
	xorl	%eax, %eax
	leaq	-64(%rbp), %rax
	movq	%rax, %rdi
	call	_ZNSt7__cxx1112basic_stringIcSt11char_traitsIcESaIcEEC1Ev@PLT
.L85:
	movq	-104(%rbp), %rax
	movq	%rax, %rdi
.LEHB7:
	call	_ZN11UIinterface11startServerEv
	movq	-104(%rbp), %rax
	addq	$232, %rax
	movq	%rax, -80(%rbp)
	movq	-80(%rbp), %rax
	movq	%rax, %rdi
	call	_ZNSt6vectorISt6threadSaIS0_EE5beginEv
	movq	%rax, -96(%rbp)
	movq	-80(%rbp), %rax
	movq	%rax, %rdi
	call	_ZNSt6vectorISt6threadSaIS0_EE3endEv
	movq	%rax, -88(%rbp)
.L84:
	leaq	-88(%rbp), %rdx
	leaq	-96(%rbp), %rax
	movq	%rdx, %rsi
	movq	%rax, %rdi
	call	_ZN9__gnu_cxxneIPSt6threadSt6vectorIS1_SaIS1_EEEEbRKNS_17__normal_iteratorIT_T0_EESB_
	testb	%al, %al
	je	.L85
	leaq	-96(%rbp), %rax
	movq	%rax, %rdi
	call	_ZNK9__gnu_cxx17__normal_iteratorIPSt6threadSt6vectorIS1_SaIS1_EEEdeEv
	movq	%rax, -72(%rbp)
	movq	-72(%rbp), %rax
	movq	%rax, %rdi
	call	_ZNSt6thread4joinEv@PLT
.LEHE7:
	leaq	-96(%rbp), %rax
	movq	%rax, %rdi
	call	_ZN9__gnu_cxx17__normal_iteratorIPSt6threadSt6vectorIS1_SaIS1_EEEppEv
	jmp	.L84
.L88:
	movq	%rax, %rbx
	leaq	-64(%rbp), %rax
	movq	%rax, %rdi
	call	_ZNSt7__cxx1112basic_stringIcSt11char_traitsIcESaIcEED1Ev@PLT
	movq	%rbx, %rax
	movq	%rax, %rdi
.LEHB8:
	call	_Unwind_Resume@PLT
.LEHE8:
	.cfi_endproc
.LFE8202:
	.section	.gcc_except_table
.LLSDA8202:
	.byte	0xff
	.byte	0xff
	.byte	0x1
	.uleb128 .LLSDACSE8202-.LLSDACSB8202
.LLSDACSB8202:
	.uleb128 .LEHB7-.LFB8202
	.uleb128 .LEHE7-.LEHB7
	.uleb128 .L88-.LFB8202
	.uleb128 0
	.uleb128 .LEHB8-.LFB8202
	.uleb128 .LEHE8-.LEHB8
	.uleb128 0
	.uleb128 0
.LLSDACSE8202:
	.text
	.size	_ZN11UIinterface13consolePromptEv, .-_ZN11UIinterface13consolePromptEv
	.section	.text._ZN11UIinterfaceC2Ev,"axG",@progbits,_ZN11UIinterfaceC5Ev,comdat
	.align 2
	.weak	_ZN11UIinterfaceC2Ev
	.type	_ZN11UIinterfaceC2Ev, @function
_ZN11UIinterfaceC2Ev:
.LFB8205:
	.cfi_startproc
	pushq	%rbp
	.cfi_def_cfa_offset 16
	.cfi_offset 6, -16
	movq	%rsp, %rbp
	.cfi_def_cfa_register 6
	subq	$16, %rsp
	movq	%rdi, -8(%rbp)
	movq	-8(%rbp), %rax
	subq	$-128, %rax
	movq	%rax, %rdi
	call	_ZN14packetAnalyserC2Ev
	movq	-8(%rbp), %rax
	addq	$232, %rax
	movq	%rax, %rdi
	call	_ZNSt6vectorISt6threadSaIS0_EEC1Ev
	nop
	leave
	.cfi_def_cfa 7, 8
	ret
	.cfi_endproc
.LFE8205:
	.size	_ZN11UIinterfaceC2Ev, .-_ZN11UIinterfaceC2Ev
	.weak	_ZN11UIinterfaceC1Ev
	.set	_ZN11UIinterfaceC1Ev,_ZN11UIinterfaceC2Ev
	.section	.text._ZN11UIinterfaceD2Ev,"axG",@progbits,_ZN11UIinterfaceD5Ev,comdat
	.align 2
	.weak	_ZN11UIinterfaceD2Ev
	.type	_ZN11UIinterfaceD2Ev, @function
_ZN11UIinterfaceD2Ev:
.LFB8208:
	.cfi_startproc
	pushq	%rbp
	.cfi_def_cfa_offset 16
	.cfi_offset 6, -16
	movq	%rsp, %rbp
	.cfi_def_cfa_register 6
	subq	$16, %rsp
	movq	%rdi, -8(%rbp)
	movq	-8(%rbp), %rax
	addq	$232, %rax
	movq	%rax, %rdi
	call	_ZNSt6vectorISt6threadSaIS0_EED1Ev
	nop
	leave
	.cfi_def_cfa 7, 8
	ret
	.cfi_endproc
.LFE8208:
	.size	_ZN11UIinterfaceD2Ev, .-_ZN11UIinterfaceD2Ev
	.weak	_ZN11UIinterfaceD1Ev
	.set	_ZN11UIinterfaceD1Ev,_ZN11UIinterfaceD2Ev
	.text
	.globl	main
	.type	main, @function
main:
.LFB8203:
	.cfi_startproc
	.cfi_personality 0x9b,DW.ref.__gxx_personality_v0
	.cfi_lsda 0x1b,.LLSDA8203
	pushq	%rbp
	.cfi_def_cfa_offset 16
	.cfi_offset 6, -16
	movq	%rsp, %rbp
	.cfi_def_cfa_register 6
	pushq	%rbx
	subq	$280, %rsp
	.cfi_offset 3, -24
	movq	%fs:40, %rax
	movq	%rax, -24(%rbp)
	xorl	%eax, %eax
	leaq	-288(%rbp), %rax
	movq	%rax, %rdi
	call	_ZN11UIinterfaceC1Ev
	leaq	-288(%rbp), %rax
	movq	%rax, %rdi
.LEHB9:
	call	_ZN11UIinterface9printLogoEv
	leaq	-288(%rbp), %rax
	movq	%rax, %rdi
	call	_ZN11UIinterface13consolePromptEv
.LEHE9:
	movl	$0, %ebx
	leaq	-288(%rbp), %rax
	movq	%rax, %rdi
	call	_ZN11UIinterfaceD1Ev
	movl	%ebx, %eax
	movq	-24(%rbp), %rdx
	xorq	%fs:40, %rdx
	je	.L94
	jmp	.L96
.L95:
	movq	%rax, %rbx
	leaq	-288(%rbp), %rax
	movq	%rax, %rdi
	call	_ZN11UIinterfaceD1Ev
	movq	%rbx, %rax
	movq	%rax, %rdi
.LEHB10:
	call	_Unwind_Resume@PLT
.LEHE10:
.L96:
	call	__stack_chk_fail@PLT
.L94:
	addq	$280, %rsp
	popq	%rbx
	popq	%rbp
	.cfi_def_cfa 7, 8
	ret
	.cfi_endproc
.LFE8203:
	.section	.gcc_except_table
.LLSDA8203:
	.byte	0xff
	.byte	0xff
	.byte	0x1
	.uleb128 .LLSDACSE8203-.LLSDACSB8203
.LLSDACSB8203:
	.uleb128 .LEHB9-.LFB8203
	.uleb128 .LEHE9-.LEHB9
	.uleb128 .L95-.LFB8203
	.uleb128 0
	.uleb128 .LEHB10-.LFB8203
	.uleb128 .LEHE10-.LEHB10
	.uleb128 0
	.uleb128 0
.LLSDACSE8203:
	.text
	.size	main, .-main
	.section	.text._ZSt4moveIRNSt6thread2idEEONSt16remove_referenceIT_E4typeEOS4_,"axG",@progbits,_ZSt4moveIRNSt6thread2idEEONSt16remove_referenceIT_E4typeEOS4_,comdat
	.weak	_ZSt4moveIRNSt6thread2idEEONSt16remove_referenceIT_E4typeEOS4_
	.type	_ZSt4moveIRNSt6thread2idEEONSt16remove_referenceIT_E4typeEOS4_, @function
_ZSt4moveIRNSt6thread2idEEONSt16remove_referenceIT_E4typeEOS4_:
.LFB8555:
	.cfi_startproc
	pushq	%rbp
	.cfi_def_cfa_offset 16
	.cfi_offset 6, -16
	movq	%rsp, %rbp
	.cfi_def_cfa_register 6
	movq	%rdi, -8(%rbp)
	movq	-8(%rbp), %rax
	popq	%rbp
	.cfi_def_cfa 7, 8
	ret
	.cfi_endproc
.LFE8555:
	.size	_ZSt4moveIRNSt6thread2idEEONSt16remove_referenceIT_E4typeEOS4_, .-_ZSt4moveIRNSt6thread2idEEONSt16remove_referenceIT_E4typeEOS4_
	.section	.text._ZSt4swapINSt6thread2idEENSt9enable_ifIXsrSt6__and_IJSt6__not_ISt15__is_tuple_likeIT_EESt21is_move_constructibleIS6_ESt18is_move_assignableIS6_EEE5valueEvE4typeERS6_SG_,"axG",@progbits,_ZSt4swapINSt6thread2idEENSt9enable_ifIXsrSt6__and_IJSt6__not_ISt15__is_tuple_likeIT_EESt21is_move_constructibleIS6_ESt18is_move_assignableIS6_EEE5valueEvE4typeERS6_SG_,comdat
	.weak	_ZSt4swapINSt6thread2idEENSt9enable_ifIXsrSt6__and_IJSt6__not_ISt15__is_tuple_likeIT_EESt21is_move_constructibleIS6_ESt18is_move_assignableIS6_EEE5valueEvE4typeERS6_SG_
	.type	_ZSt4swapINSt6thread2idEENSt9enable_ifIXsrSt6__and_IJSt6__not_ISt15__is_tuple_likeIT_EESt21is_move_constructibleIS6_ESt18is_move_assignableIS6_EEE5valueEvE4typeERS6_SG_, @function
_ZSt4swapINSt6thread2idEENSt9enable_ifIXsrSt6__and_IJSt6__not_ISt15__is_tuple_likeIT_EESt21is_move_constructibleIS6_ESt18is_move_assignableIS6_EEE5valueEvE4typeERS6_SG_:
.LFB8554:
	.cfi_startproc
	pushq	%rbp
	.cfi_def_cfa_offset 16
	.cfi_offset 6, -16
	movq	%rsp, %rbp
	.cfi_def_cfa_register 6
	subq	$32, %rsp
	movq	%rdi, -24(%rbp)
	movq	%rsi, -32(%rbp)
	movq	%fs:40, %rax
	movq	%rax, -8(%rbp)
	xorl	%eax, %eax
	movq	-24(%rbp), %rax
	movq	%rax, %rdi
	call	_ZSt4moveIRNSt6thread2idEEONSt16remove_referenceIT_E4typeEOS4_
	movq	(%rax), %rax
	movq	%rax, -16(%rbp)
	movq	-32(%rbp), %rax
	movq	%rax, %rdi
	call	_ZSt4moveIRNSt6thread2idEEONSt16remove_referenceIT_E4typeEOS4_
	movq	%rax, %rdx
	movq	-24(%rbp), %rax
	movq	(%rdx), %rdx
	movq	%rdx, (%rax)
	leaq	-16(%rbp), %rax
	movq	%rax, %rdi
	call	_ZSt4moveIRNSt6thread2idEEONSt16remove_referenceIT_E4typeEOS4_
	movq	%rax, %rdx
	movq	-32(%rbp), %rax
	movq	(%rdx), %rdx
	movq	%rdx, (%rax)
	nop
	movq	-8(%rbp), %rax
	xorq	%fs:40, %rax
	je	.L100
	call	__stack_chk_fail@PLT
.L100:
	leave
	.cfi_def_cfa 7, 8
	ret
	.cfi_endproc
.LFE8554:
	.size	_ZSt4swapINSt6thread2idEENSt9enable_ifIXsrSt6__and_IJSt6__not_ISt15__is_tuple_likeIT_EESt21is_move_constructibleIS6_ESt18is_move_assignableIS6_EEE5valueEvE4typeERS6_SG_, .-_ZSt4swapINSt6thread2idEENSt9enable_ifIXsrSt6__and_IJSt6__not_ISt15__is_tuple_likeIT_EESt21is_move_constructibleIS6_ESt18is_move_assignableIS6_EEE5valueEvE4typeERS6_SG_
	.section	.text._ZSt3maxImERKT_S2_S2_,"axG",@progbits,_ZSt3maxImERKT_S2_S2_,comdat
	.weak	_ZSt3maxImERKT_S2_S2_
	.type	_ZSt3maxImERKT_S2_S2_, @function
_ZSt3maxImERKT_S2_S2_:
.LFB8717:
	.cfi_startproc
	pushq	%rbp
	.cfi_def_cfa_offset 16
	.cfi_offset 6, -16
	movq	%rsp, %rbp
	.cfi_def_cfa_register 6
	movq	%rdi, -8(%rbp)
	movq	%rsi, -16(%rbp)
	movq	-8(%rbp), %rax
	movq	(%rax), %rdx
	movq	-16(%rbp), %rax
	movq	(%rax), %rax
	cmpq	%rax, %rdx
	jnb	.L102
	movq	-16(%rbp), %rax
	jmp	.L103
.L102:
	movq	-8(%rbp), %rax
.L103:
	popq	%rbp
	.cfi_def_cfa 7, 8
	ret
	.cfi_endproc
.LFE8717:
	.size	_ZSt3maxImERKT_S2_S2_, .-_ZSt3maxImERKT_S2_S2_
	.section	.text._ZSt7forwardIM10echoServerFvvEEOT_RNSt16remove_referenceIS3_E4typeE,"axG",@progbits,_ZSt7forwardIM10echoServerFvvEEOT_RNSt16remove_referenceIS3_E4typeE,comdat
	.weak	_ZSt7forwardIM10echoServerFvvEEOT_RNSt16remove_referenceIS3_E4typeE
	.type	_ZSt7forwardIM10echoServerFvvEEOT_RNSt16remove_referenceIS3_E4typeE, @function
_ZSt7forwardIM10echoServerFvvEEOT_RNSt16remove_referenceIS3_E4typeE:
.LFB8735:
	.cfi_startproc
	pushq	%rbp
	.cfi_def_cfa_offset 16
	.cfi_offset 6, -16
	movq	%rsp, %rbp
	.cfi_def_cfa_register 6
	movq	%rdi, -8(%rbp)
	movq	-8(%rbp), %rax
	popq	%rbp
	.cfi_def_cfa 7, 8
	ret
	.cfi_endproc
.LFE8735:
	.size	_ZSt7forwardIM10echoServerFvvEEOT_RNSt16remove_referenceIS3_E4typeE, .-_ZSt7forwardIM10echoServerFvvEEOT_RNSt16remove_referenceIS3_E4typeE
	.section	.text._ZSt7forwardI10echoServerEOT_RNSt16remove_referenceIS1_E4typeE,"axG",@progbits,_ZSt7forwardI10echoServerEOT_RNSt16remove_referenceIS1_E4typeE,comdat
	.weak	_ZSt7forwardI10echoServerEOT_RNSt16remove_referenceIS1_E4typeE
	.type	_ZSt7forwardI10echoServerEOT_RNSt16remove_referenceIS1_E4typeE, @function
_ZSt7forwardI10echoServerEOT_RNSt16remove_referenceIS1_E4typeE:
.LFB8736:
	.cfi_startproc
	pushq	%rbp
	.cfi_def_cfa_offset 16
	.cfi_offset 6, -16
	movq	%rsp, %rbp
	.cfi_def_cfa_register 6
	movq	%rdi, -8(%rbp)
	movq	-8(%rbp), %rax
	popq	%rbp
	.cfi_def_cfa 7, 8
	ret
	.cfi_endproc
.LFE8736:
	.size	_ZSt7forwardI10echoServerEOT_RNSt16remove_referenceIS1_E4typeE, .-_ZSt7forwardI10echoServerEOT_RNSt16remove_referenceIS1_E4typeE
	.section	.text._ZSt8__invokeIM10echoServerFvvEJS0_EENSt15__invoke_resultIT_JDpT0_EE4typeEOS4_DpOS5_,"axG",@progbits,_ZSt8__invokeIM10echoServerFvvEJS0_EENSt15__invoke_resultIT_JDpT0_EE4typeEOS4_DpOS5_,comdat
	.weak	_ZSt8__invokeIM10echoServerFvvEJS0_EENSt15__invoke_resultIT_JDpT0_EE4typeEOS4_DpOS5_
	.type	_ZSt8__invokeIM10echoServerFvvEJS0_EENSt15__invoke_resultIT_JDpT0_EE4typeEOS4_DpOS5_, @function
_ZSt8__invokeIM10echoServerFvvEJS0_EENSt15__invoke_resultIT_JDpT0_EE4typeEOS4_DpOS5_:
.LFB8738:
	.cfi_startproc
	pushq	%rbp
	.cfi_def_cfa_offset 16
	.cfi_offset 6, -16
	movq	%rsp, %rbp
	.cfi_def_cfa_register 6
	pushq	%r12
	pushq	%rbx
	subq	$32, %rsp
	.cfi_offset 12, -24
	.cfi_offset 3, -32
	movq	%rdi, -40(%rbp)
	movq	%rsi, -48(%rbp)
	movq	%fs:40, %rax
	movq	%rax, -24(%rbp)
	xorl	%eax, %eax
	movq	-48(%rbp), %rax
	movq	%rax, %rdi
	call	_ZSt7forwardI10echoServerEOT_RNSt16remove_referenceIS1_E4typeE
	movq	%rax, %rbx
	movq	-40(%rbp), %rax
	movq	%rax, %rdi
	call	_ZSt7forwardIM10echoServerFvvEEOT_RNSt16remove_referenceIS3_E4typeE
	subq	$8, %rsp
	pushq	%r12
	movq	%rbx, %rsi
	movq	%rax, %rdi
	call	_ZSt13__invoke_implIvM10echoServerFvvES0_JEET_St19__invoke_memfun_refOT0_OT1_DpOT2_
	addq	$16, %rsp
	nop
	movq	-24(%rbp), %rax
	xorq	%fs:40, %rax
	je	.L110
	call	__stack_chk_fail@PLT
.L110:
	leaq	-16(%rbp), %rsp
	popq	%rbx
	popq	%r12
	popq	%rbp
	.cfi_def_cfa 7, 8
	ret
	.cfi_endproc
.LFE8738:
	.size	_ZSt8__invokeIM10echoServerFvvEJS0_EENSt15__invoke_resultIT_JDpT0_EE4typeEOS4_DpOS5_, .-_ZSt8__invokeIM10echoServerFvvEJS0_EENSt15__invoke_resultIT_JDpT0_EE4typeEOS4_DpOS5_
	.section	.text._ZNSt6threadC2IM10echoServerFvvEJS1_EEEOT_DpOT0_,"axG",@progbits,_ZNSt6threadC5IM10echoServerFvvEJS1_EEEOT_DpOT0_,comdat
	.align 2
	.weak	_ZNSt6threadC2IM10echoServerFvvEJS1_EEEOT_DpOT0_
	.type	_ZNSt6threadC2IM10echoServerFvvEJS1_EEEOT_DpOT0_, @function
_ZNSt6threadC2IM10echoServerFvvEJS1_EEEOT_DpOT0_:
.LFB8739:
	.cfi_startproc
	.cfi_personality 0x9b,DW.ref.__gxx_personality_v0
	.cfi_lsda 0x1b,.LLSDA8739
	pushq	%rbp
	.cfi_def_cfa_offset 16
	.cfi_offset 6, -16
	movq	%rsp, %rbp
	.cfi_def_cfa_register 6
	pushq	%rbx
	subq	$216, %rsp
	.cfi_offset 3, -24
	movq	%rdi, -200(%rbp)
	movq	%rsi, -208(%rbp)
	movq	%rdx, -216(%rbp)
	movq	%fs:40, %rax
	movq	%rax, -24(%rbp)
	xorl	%eax, %eax
	movq	-200(%rbp), %rax
	movq	%rax, %rdi
	call	_ZNSt6thread2idC1Ev
	movq	pthread_create@GOTPCREL(%rip), %rax
	movq	%rax, -184(%rbp)
	movq	-216(%rbp), %rax
	movq	%rax, %rdi
	call	_ZSt7forwardI10echoServerEOT_RNSt16remove_referenceIS1_E4typeE
	movq	%rax, %rbx
	movq	-208(%rbp), %rax
	movq	%rax, %rdi
	call	_ZSt7forwardIM10echoServerFvvEEOT_RNSt16remove_referenceIS3_E4typeE
	movq	%rax, %rcx
	leaq	-176(%rbp), %rax
	movq	%rbx, %rdx
	movq	%rcx, %rsi
	movq	%rax, %rdi
.LEHB11:
	call	_ZNSt6thread14__make_invokerIM10echoServerFvvEJS1_EEENS_8_InvokerISt5tupleIJNSt5decayIT_E4typeEDpNS6_IT0_E4typeEEEEEOS7_DpOSA_
	leaq	-192(%rbp), %rax
	leaq	-176(%rbp), %rdx
	movq	%rdx, %rsi
	movq	%rax, %rdi
	call	_ZNSt6thread13_S_make_stateINS_8_InvokerISt5tupleIJM10echoServerFvvES3_EEEEEESt10unique_ptrINS_6_StateESt14default_deleteIS9_EEOT_
.LEHE11:
	movq	-184(%rbp), %rdx
	leaq	-192(%rbp), %rcx
	movq	-200(%rbp), %rax
	movq	%rcx, %rsi
	movq	%rax, %rdi
.LEHB12:
	call	_ZNSt6thread15_M_start_threadESt10unique_ptrINS_6_StateESt14default_deleteIS1_EEPFvvE@PLT
.LEHE12:
	leaq	-192(%rbp), %rax
	movq	%rax, %rdi
	call	_ZNSt10unique_ptrINSt6thread6_StateESt14default_deleteIS1_EED1Ev
	nop
	movq	-24(%rbp), %rax
	xorq	%fs:40, %rax
	je	.L113
	jmp	.L115
.L114:
	movq	%rax, %rbx
	leaq	-192(%rbp), %rax
	movq	%rax, %rdi
	call	_ZNSt10unique_ptrINSt6thread6_StateESt14default_deleteIS1_EED1Ev
	movq	%rbx, %rax
	movq	%rax, %rdi
.LEHB13:
	call	_Unwind_Resume@PLT
.LEHE13:
.L115:
	call	__stack_chk_fail@PLT
.L113:
	addq	$216, %rsp
	popq	%rbx
	popq	%rbp
	.cfi_def_cfa 7, 8
	ret
	.cfi_endproc
.LFE8739:
	.section	.gcc_except_table
.LLSDA8739:
	.byte	0xff
	.byte	0xff
	.byte	0x1
	.uleb128 .LLSDACSE8739-.LLSDACSB8739
.LLSDACSB8739:
	.uleb128 .LEHB11-.LFB8739
	.uleb128 .LEHE11-.LEHB11
	.uleb128 0
	.uleb128 0
	.uleb128 .LEHB12-.LFB8739
	.uleb128 .LEHE12-.LEHB12
	.uleb128 .L114-.LFB8739
	.uleb128 0
	.uleb128 .LEHB13-.LFB8739
	.uleb128 .LEHE13-.LEHB13
	.uleb128 0
	.uleb128 0
.LLSDACSE8739:
	.section	.text._ZNSt6threadC2IM10echoServerFvvEJS1_EEEOT_DpOT0_,"axG",@progbits,_ZNSt6threadC5IM10echoServerFvvEJS1_EEEOT_DpOT0_,comdat
	.size	_ZNSt6threadC2IM10echoServerFvvEJS1_EEEOT_DpOT0_, .-_ZNSt6threadC2IM10echoServerFvvEJS1_EEEOT_DpOT0_
	.weak	_ZNSt6threadC1IM10echoServerFvvEJS1_EEEOT_DpOT0_
	.set	_ZNSt6threadC1IM10echoServerFvvEJS1_EEEOT_DpOT0_,_ZNSt6threadC2IM10echoServerFvvEJS1_EEEOT_DpOT0_
	.section	.text._ZSt4moveIRSt6threadEONSt16remove_referenceIT_E4typeEOS3_,"axG",@progbits,_ZSt4moveIRSt6threadEONSt16remove_referenceIT_E4typeEOS3_,comdat
	.weak	_ZSt4moveIRSt6threadEONSt16remove_referenceIT_E4typeEOS3_
	.type	_ZSt4moveIRSt6threadEONSt16remove_referenceIT_E4typeEOS3_, @function
_ZSt4moveIRSt6threadEONSt16remove_referenceIT_E4typeEOS3_:
.LFB8742:
	.cfi_startproc
	pushq	%rbp
	.cfi_def_cfa_offset 16
	.cfi_offset 6, -16
	movq	%rsp, %rbp
	.cfi_def_cfa_register 6
	movq	%rdi, -8(%rbp)
	movq	-8(%rbp), %rax
	popq	%rbp
	.cfi_def_cfa 7, 8
	ret
	.cfi_endproc
.LFE8742:
	.size	_ZSt4moveIRSt6threadEONSt16remove_referenceIT_E4typeEOS3_, .-_ZSt4moveIRSt6threadEONSt16remove_referenceIT_E4typeEOS3_
	.section	.text._ZNSt6vectorISt6threadSaIS0_EE9push_backEOS0_,"axG",@progbits,_ZNSt6vectorISt6threadSaIS0_EE9push_backEOS0_,comdat
	.align 2
	.weak	_ZNSt6vectorISt6threadSaIS0_EE9push_backEOS0_
	.type	_ZNSt6vectorISt6threadSaIS0_EE9push_backEOS0_, @function
_ZNSt6vectorISt6threadSaIS0_EE9push_backEOS0_:
.LFB8741:
	.cfi_startproc
	pushq	%rbp
	.cfi_def_cfa_offset 16
	.cfi_offset 6, -16
	movq	%rsp, %rbp
	.cfi_def_cfa_register 6
	subq	$16, %rsp
	movq	%rdi, -8(%rbp)
	movq	%rsi, -16(%rbp)
	movq	-16(%rbp), %rax
	movq	%rax, %rdi
	call	_ZSt4moveIRSt6threadEONSt16remove_referenceIT_E4typeEOS3_
	movq	%rax, %rdx
	movq	-8(%rbp), %rax
	movq	%rdx, %rsi
	movq	%rax, %rdi
	call	_ZNSt6vectorISt6threadSaIS0_EE12emplace_backIJS0_EEEvDpOT_
	nop
	leave
	.cfi_def_cfa 7, 8
	ret
	.cfi_endproc
.LFE8741:
	.size	_ZNSt6vectorISt6threadSaIS0_EE9push_backEOS0_, .-_ZNSt6vectorISt6threadSaIS0_EE9push_backEOS0_
	.section	.text._ZNSt6vectorISt6threadSaIS0_EEixEm,"axG",@progbits,_ZNSt6vectorISt6threadSaIS0_EEixEm,comdat
	.align 2
	.weak	_ZNSt6vectorISt6threadSaIS0_EEixEm
	.type	_ZNSt6vectorISt6threadSaIS0_EEixEm, @function
_ZNSt6vectorISt6threadSaIS0_EEixEm:
.LFB8743:
	.cfi_startproc
	pushq	%rbp
	.cfi_def_cfa_offset 16
	.cfi_offset 6, -16
	movq	%rsp, %rbp
	.cfi_def_cfa_register 6
	movq	%rdi, -8(%rbp)
	movq	%rsi, -16(%rbp)
	movq	-8(%rbp), %rax
	movq	(%rax), %rax
	movq	-16(%rbp), %rdx
	salq	$3, %rdx
	addq	%rdx, %rax
	popq	%rbp
	.cfi_def_cfa 7, 8
	ret
	.cfi_endproc
.LFE8743:
	.size	_ZNSt6vectorISt6threadSaIS0_EEixEm, .-_ZNSt6vectorISt6threadSaIS0_EEixEm
	.section	.rodata
	.align 8
.LC70:
	.string	"thread::id of a non-executing thread"
	.section	.text._ZStlsIcSt11char_traitsIcEERSt13basic_ostreamIT_T0_ES6_NSt6thread2idE,"axG",@progbits,_ZStlsIcSt11char_traitsIcEERSt13basic_ostreamIT_T0_ES6_NSt6thread2idE,comdat
	.weak	_ZStlsIcSt11char_traitsIcEERSt13basic_ostreamIT_T0_ES6_NSt6thread2idE
	.type	_ZStlsIcSt11char_traitsIcEERSt13basic_ostreamIT_T0_ES6_NSt6thread2idE, @function
_ZStlsIcSt11char_traitsIcEERSt13basic_ostreamIT_T0_ES6_NSt6thread2idE:
.LFB8744:
	.cfi_startproc
	pushq	%rbp
	.cfi_def_cfa_offset 16
	.cfi_offset 6, -16
	movq	%rsp, %rbp
	.cfi_def_cfa_register 6
	subq	$32, %rsp
	movq	%rdi, -24(%rbp)
	movq	%rsi, -32(%rbp)
	movq	%fs:40, %rax
	movq	%rax, -8(%rbp)
	xorl	%eax, %eax
	leaq	-16(%rbp), %rax
	movq	%rax, %rdi
	call	_ZNSt6thread2idC1Ev
	movq	-16(%rbp), %rdx
	movq	-32(%rbp), %rax
	movq	%rdx, %rsi
	movq	%rax, %rdi
	call	_ZSteqNSt6thread2idES0_
	testb	%al, %al
	je	.L122
	movq	-24(%rbp), %rax
	leaq	.LC70(%rip), %rsi
	movq	%rax, %rdi
	call	_ZStlsISt11char_traitsIcEERSt13basic_ostreamIcT_ES5_PKc@PLT
	jmp	.L123
.L122:
	movq	-32(%rbp), %rdx
	movq	-24(%rbp), %rax
	movq	%rdx, %rsi
	movq	%rax, %rdi
	call	_ZNSolsEm@PLT
.L123:
	movq	-8(%rbp), %rcx
	xorq	%fs:40, %rcx
	je	.L124
	call	__stack_chk_fail@PLT
.L124:
	leave
	.cfi_def_cfa 7, 8
	ret
	.cfi_endproc
.LFE8744:
	.size	_ZStlsIcSt11char_traitsIcEERSt13basic_ostreamIT_T0_ES6_NSt6thread2idE, .-_ZStlsIcSt11char_traitsIcEERSt13basic_ostreamIT_T0_ES6_NSt6thread2idE
	.section	.text._ZSt7forwardIM14packetAnalyserFvvEEOT_RNSt16remove_referenceIS3_E4typeE,"axG",@progbits,_ZSt7forwardIM14packetAnalyserFvvEEOT_RNSt16remove_referenceIS3_E4typeE,comdat
	.weak	_ZSt7forwardIM14packetAnalyserFvvEEOT_RNSt16remove_referenceIS3_E4typeE
	.type	_ZSt7forwardIM14packetAnalyserFvvEEOT_RNSt16remove_referenceIS3_E4typeE, @function
_ZSt7forwardIM14packetAnalyserFvvEEOT_RNSt16remove_referenceIS3_E4typeE:
.LFB8746:
	.cfi_startproc
	pushq	%rbp
	.cfi_def_cfa_offset 16
	.cfi_offset 6, -16
	movq	%rsp, %rbp
	.cfi_def_cfa_register 6
	movq	%rdi, -8(%rbp)
	movq	-8(%rbp), %rax
	popq	%rbp
	.cfi_def_cfa 7, 8
	ret
	.cfi_endproc
.LFE8746:
	.size	_ZSt7forwardIM14packetAnalyserFvvEEOT_RNSt16remove_referenceIS3_E4typeE, .-_ZSt7forwardIM14packetAnalyserFvvEEOT_RNSt16remove_referenceIS3_E4typeE
	.section	.text._ZSt7forwardI14packetAnalyserEOT_RNSt16remove_referenceIS1_E4typeE,"axG",@progbits,_ZSt7forwardI14packetAnalyserEOT_RNSt16remove_referenceIS1_E4typeE,comdat
	.weak	_ZSt7forwardI14packetAnalyserEOT_RNSt16remove_referenceIS1_E4typeE
	.type	_ZSt7forwardI14packetAnalyserEOT_RNSt16remove_referenceIS1_E4typeE, @function
_ZSt7forwardI14packetAnalyserEOT_RNSt16remove_referenceIS1_E4typeE:
.LFB8747:
	.cfi_startproc
	pushq	%rbp
	.cfi_def_cfa_offset 16
	.cfi_offset 6, -16
	movq	%rsp, %rbp
	.cfi_def_cfa_register 6
	movq	%rdi, -8(%rbp)
	movq	-8(%rbp), %rax
	popq	%rbp
	.cfi_def_cfa 7, 8
	ret
	.cfi_endproc
.LFE8747:
	.size	_ZSt7forwardI14packetAnalyserEOT_RNSt16remove_referenceIS1_E4typeE, .-_ZSt7forwardI14packetAnalyserEOT_RNSt16remove_referenceIS1_E4typeE
	.section	.text._ZSt8__invokeIM14packetAnalyserFvvEJS0_EENSt15__invoke_resultIT_JDpT0_EE4typeEOS4_DpOS5_,"axG",@progbits,_ZSt8__invokeIM14packetAnalyserFvvEJS0_EENSt15__invoke_resultIT_JDpT0_EE4typeEOS4_DpOS5_,comdat
	.weak	_ZSt8__invokeIM14packetAnalyserFvvEJS0_EENSt15__invoke_resultIT_JDpT0_EE4typeEOS4_DpOS5_
	.type	_ZSt8__invokeIM14packetAnalyserFvvEJS0_EENSt15__invoke_resultIT_JDpT0_EE4typeEOS4_DpOS5_, @function
_ZSt8__invokeIM14packetAnalyserFvvEJS0_EENSt15__invoke_resultIT_JDpT0_EE4typeEOS4_DpOS5_:
.LFB8749:
	.cfi_startproc
	pushq	%rbp
	.cfi_def_cfa_offset 16
	.cfi_offset 6, -16
	movq	%rsp, %rbp
	.cfi_def_cfa_register 6
	pushq	%r12
	pushq	%rbx
	subq	$32, %rsp
	.cfi_offset 12, -24
	.cfi_offset 3, -32
	movq	%rdi, -40(%rbp)
	movq	%rsi, -48(%rbp)
	movq	%fs:40, %rax
	movq	%rax, -24(%rbp)
	xorl	%eax, %eax
	movq	-48(%rbp), %rax
	movq	%rax, %rdi
	call	_ZSt7forwardI14packetAnalyserEOT_RNSt16remove_referenceIS1_E4typeE
	movq	%rax, %rbx
	movq	-40(%rbp), %rax
	movq	%rax, %rdi
	call	_ZSt7forwardIM14packetAnalyserFvvEEOT_RNSt16remove_referenceIS3_E4typeE
	subq	$8, %rsp
	pushq	%r12
	movq	%rbx, %rsi
	movq	%rax, %rdi
	call	_ZSt13__invoke_implIvM14packetAnalyserFvvES0_JEET_St19__invoke_memfun_refOT0_OT1_DpOT2_
	addq	$16, %rsp
	nop
	movq	-24(%rbp), %rax
	xorq	%fs:40, %rax
	je	.L131
	call	__stack_chk_fail@PLT
.L131:
	leaq	-16(%rbp), %rsp
	popq	%rbx
	popq	%r12
	popq	%rbp
	.cfi_def_cfa 7, 8
	ret
	.cfi_endproc
.LFE8749:
	.size	_ZSt8__invokeIM14packetAnalyserFvvEJS0_EENSt15__invoke_resultIT_JDpT0_EE4typeEOS4_DpOS5_, .-_ZSt8__invokeIM14packetAnalyserFvvEJS0_EENSt15__invoke_resultIT_JDpT0_EE4typeEOS4_DpOS5_
	.section	.text._ZNSt6threadC2IM14packetAnalyserFvvEJS1_EEEOT_DpOT0_,"axG",@progbits,_ZNSt6threadC5IM14packetAnalyserFvvEJS1_EEEOT_DpOT0_,comdat
	.align 2
	.weak	_ZNSt6threadC2IM14packetAnalyserFvvEJS1_EEEOT_DpOT0_
	.type	_ZNSt6threadC2IM14packetAnalyserFvvEJS1_EEEOT_DpOT0_, @function
_ZNSt6threadC2IM14packetAnalyserFvvEJS1_EEEOT_DpOT0_:
.LFB8750:
	.cfi_startproc
	.cfi_personality 0x9b,DW.ref.__gxx_personality_v0
	.cfi_lsda 0x1b,.LLSDA8750
	pushq	%rbp
	.cfi_def_cfa_offset 16
	.cfi_offset 6, -16
	movq	%rsp, %rbp
	.cfi_def_cfa_register 6
	pushq	%rbx
	subq	$184, %rsp
	.cfi_offset 3, -24
	movq	%rdi, -168(%rbp)
	movq	%rsi, -176(%rbp)
	movq	%rdx, -184(%rbp)
	movq	%fs:40, %rax
	movq	%rax, -24(%rbp)
	xorl	%eax, %eax
	movq	-168(%rbp), %rax
	movq	%rax, %rdi
	call	_ZNSt6thread2idC1Ev
	movq	pthread_create@GOTPCREL(%rip), %rax
	movq	%rax, -152(%rbp)
	movq	-184(%rbp), %rax
	movq	%rax, %rdi
	call	_ZSt7forwardI14packetAnalyserEOT_RNSt16remove_referenceIS1_E4typeE
	movq	%rax, %rbx
	movq	-176(%rbp), %rax
	movq	%rax, %rdi
	call	_ZSt7forwardIM14packetAnalyserFvvEEOT_RNSt16remove_referenceIS3_E4typeE
	movq	%rax, %rcx
	leaq	-144(%rbp), %rax
	movq	%rbx, %rdx
	movq	%rcx, %rsi
	movq	%rax, %rdi
.LEHB14:
	call	_ZNSt6thread14__make_invokerIM14packetAnalyserFvvEJS1_EEENS_8_InvokerISt5tupleIJNSt5decayIT_E4typeEDpNS6_IT0_E4typeEEEEEOS7_DpOSA_
	leaq	-160(%rbp), %rax
	leaq	-144(%rbp), %rdx
	movq	%rdx, %rsi
	movq	%rax, %rdi
	call	_ZNSt6thread13_S_make_stateINS_8_InvokerISt5tupleIJM14packetAnalyserFvvES3_EEEEEESt10unique_ptrINS_6_StateESt14default_deleteIS9_EEOT_
.LEHE14:
	movq	-152(%rbp), %rdx
	leaq	-160(%rbp), %rcx
	movq	-168(%rbp), %rax
	movq	%rcx, %rsi
	movq	%rax, %rdi
.LEHB15:
	call	_ZNSt6thread15_M_start_threadESt10unique_ptrINS_6_StateESt14default_deleteIS1_EEPFvvE@PLT
.LEHE15:
	leaq	-160(%rbp), %rax
	movq	%rax, %rdi
	call	_ZNSt10unique_ptrINSt6thread6_StateESt14default_deleteIS1_EED1Ev
	nop
	movq	-24(%rbp), %rax
	xorq	%fs:40, %rax
	je	.L134
	jmp	.L136
.L135:
	movq	%rax, %rbx
	leaq	-160(%rbp), %rax
	movq	%rax, %rdi
	call	_ZNSt10unique_ptrINSt6thread6_StateESt14default_deleteIS1_EED1Ev
	movq	%rbx, %rax
	movq	%rax, %rdi
.LEHB16:
	call	_Unwind_Resume@PLT
.LEHE16:
.L136:
	call	__stack_chk_fail@PLT
.L134:
	addq	$184, %rsp
	popq	%rbx
	popq	%rbp
	.cfi_def_cfa 7, 8
	ret
	.cfi_endproc
.LFE8750:
	.section	.gcc_except_table
.LLSDA8750:
	.byte	0xff
	.byte	0xff
	.byte	0x1
	.uleb128 .LLSDACSE8750-.LLSDACSB8750
.LLSDACSB8750:
	.uleb128 .LEHB14-.LFB8750
	.uleb128 .LEHE14-.LEHB14
	.uleb128 0
	.uleb128 0
	.uleb128 .LEHB15-.LFB8750
	.uleb128 .LEHE15-.LEHB15
	.uleb128 .L135-.LFB8750
	.uleb128 0
	.uleb128 .LEHB16-.LFB8750
	.uleb128 .LEHE16-.LEHB16
	.uleb128 0
	.uleb128 0
.LLSDACSE8750:
	.section	.text._ZNSt6threadC2IM14packetAnalyserFvvEJS1_EEEOT_DpOT0_,"axG",@progbits,_ZNSt6threadC5IM14packetAnalyserFvvEJS1_EEEOT_DpOT0_,comdat
	.size	_ZNSt6threadC2IM14packetAnalyserFvvEJS1_EEEOT_DpOT0_, .-_ZNSt6threadC2IM14packetAnalyserFvvEJS1_EEEOT_DpOT0_
	.weak	_ZNSt6threadC1IM14packetAnalyserFvvEJS1_EEEOT_DpOT0_
	.set	_ZNSt6threadC1IM14packetAnalyserFvvEJS1_EEEOT_DpOT0_,_ZNSt6threadC2IM14packetAnalyserFvvEJS1_EEEOT_DpOT0_
	.section	.text._ZNSt6vectorISt6threadSaIS0_EE5beginEv,"axG",@progbits,_ZNSt6vectorISt6threadSaIS0_EE5beginEv,comdat
	.align 2
	.weak	_ZNSt6vectorISt6threadSaIS0_EE5beginEv
	.type	_ZNSt6vectorISt6threadSaIS0_EE5beginEv, @function
_ZNSt6vectorISt6threadSaIS0_EE5beginEv:
.LFB8755:
	.cfi_startproc
	pushq	%rbp
	.cfi_def_cfa_offset 16
	.cfi_offset 6, -16
	movq	%rsp, %rbp
	.cfi_def_cfa_register 6
	subq	$32, %rsp
	movq	%rdi, -24(%rbp)
	movq	%fs:40, %rax
	movq	%rax, -8(%rbp)
	xorl	%eax, %eax
	movq	-24(%rbp), %rdx
	leaq	-16(%rbp), %rax
	movq	%rdx, %rsi
	movq	%rax, %rdi
	call	_ZN9__gnu_cxx17__normal_iteratorIPSt6threadSt6vectorIS1_SaIS1_EEEC1ERKS2_
	movq	-16(%rbp), %rax
	movq	-8(%rbp), %rcx
	xorq	%fs:40, %rcx
	je	.L139
	call	__stack_chk_fail@PLT
.L139:
	leave
	.cfi_def_cfa 7, 8
	ret
	.cfi_endproc
.LFE8755:
	.size	_ZNSt6vectorISt6threadSaIS0_EE5beginEv, .-_ZNSt6vectorISt6threadSaIS0_EE5beginEv
	.section	.text._ZNSt6vectorISt6threadSaIS0_EE3endEv,"axG",@progbits,_ZNSt6vectorISt6threadSaIS0_EE3endEv,comdat
	.align 2
	.weak	_ZNSt6vectorISt6threadSaIS0_EE3endEv
	.type	_ZNSt6vectorISt6threadSaIS0_EE3endEv, @function
_ZNSt6vectorISt6threadSaIS0_EE3endEv:
.LFB8756:
	.cfi_startproc
	pushq	%rbp
	.cfi_def_cfa_offset 16
	.cfi_offset 6, -16
	movq	%rsp, %rbp
	.cfi_def_cfa_register 6
	subq	$32, %rsp
	movq	%rdi, -24(%rbp)
	movq	%fs:40, %rax
	movq	%rax, -8(%rbp)
	xorl	%eax, %eax
	movq	-24(%rbp), %rax
	leaq	8(%rax), %rdx
	leaq	-16(%rbp), %rax
	movq	%rdx, %rsi
	movq	%rax, %rdi
	call	_ZN9__gnu_cxx17__normal_iteratorIPSt6threadSt6vectorIS1_SaIS1_EEEC1ERKS2_
	movq	-16(%rbp), %rax
	movq	-8(%rbp), %rcx
	xorq	%fs:40, %rcx
	je	.L142
	call	__stack_chk_fail@PLT
.L142:
	leave
	.cfi_def_cfa 7, 8
	ret
	.cfi_endproc
.LFE8756:
	.size	_ZNSt6vectorISt6threadSaIS0_EE3endEv, .-_ZNSt6vectorISt6threadSaIS0_EE3endEv
	.section	.text._ZN9__gnu_cxxneIPSt6threadSt6vectorIS1_SaIS1_EEEEbRKNS_17__normal_iteratorIT_T0_EESB_,"axG",@progbits,_ZN9__gnu_cxxneIPSt6threadSt6vectorIS1_SaIS1_EEEEbRKNS_17__normal_iteratorIT_T0_EESB_,comdat
	.weak	_ZN9__gnu_cxxneIPSt6threadSt6vectorIS1_SaIS1_EEEEbRKNS_17__normal_iteratorIT_T0_EESB_
	.type	_ZN9__gnu_cxxneIPSt6threadSt6vectorIS1_SaIS1_EEEEbRKNS_17__normal_iteratorIT_T0_EESB_, @function
_ZN9__gnu_cxxneIPSt6threadSt6vectorIS1_SaIS1_EEEEbRKNS_17__normal_iteratorIT_T0_EESB_:
.LFB8757:
	.cfi_startproc
	pushq	%rbp
	.cfi_def_cfa_offset 16
	.cfi_offset 6, -16
	movq	%rsp, %rbp
	.cfi_def_cfa_register 6
	pushq	%rbx
	subq	$24, %rsp
	.cfi_offset 3, -24
	movq	%rdi, -24(%rbp)
	movq	%rsi, -32(%rbp)
	movq	-24(%rbp), %rax
	movq	%rax, %rdi
	call	_ZNK9__gnu_cxx17__normal_iteratorIPSt6threadSt6vectorIS1_SaIS1_EEE4baseEv
	movq	(%rax), %rbx
	movq	-32(%rbp), %rax
	movq	%rax, %rdi
	call	_ZNK9__gnu_cxx17__normal_iteratorIPSt6threadSt6vectorIS1_SaIS1_EEE4baseEv
	movq	(%rax), %rax
	cmpq	%rax, %rbx
	setne	%al
	addq	$24, %rsp
	popq	%rbx
	popq	%rbp
	.cfi_def_cfa 7, 8
	ret
	.cfi_endproc
.LFE8757:
	.size	_ZN9__gnu_cxxneIPSt6threadSt6vectorIS1_SaIS1_EEEEbRKNS_17__normal_iteratorIT_T0_EESB_, .-_ZN9__gnu_cxxneIPSt6threadSt6vectorIS1_SaIS1_EEEEbRKNS_17__normal_iteratorIT_T0_EESB_
	.section	.text._ZN9__gnu_cxx17__normal_iteratorIPSt6threadSt6vectorIS1_SaIS1_EEEppEv,"axG",@progbits,_ZN9__gnu_cxx17__normal_iteratorIPSt6threadSt6vectorIS1_SaIS1_EEEppEv,comdat
	.align 2
	.weak	_ZN9__gnu_cxx17__normal_iteratorIPSt6threadSt6vectorIS1_SaIS1_EEEppEv
	.type	_ZN9__gnu_cxx17__normal_iteratorIPSt6threadSt6vectorIS1_SaIS1_EEEppEv, @function
_ZN9__gnu_cxx17__normal_iteratorIPSt6threadSt6vectorIS1_SaIS1_EEEppEv:
.LFB8758:
	.cfi_startproc
	pushq	%rbp
	.cfi_def_cfa_offset 16
	.cfi_offset 6, -16
	movq	%rsp, %rbp
	.cfi_def_cfa_register 6
	movq	%rdi, -8(%rbp)
	movq	-8(%rbp), %rax
	movq	(%rax), %rax
	leaq	8(%rax), %rdx
	movq	-8(%rbp), %rax
	movq	%rdx, (%rax)
	movq	-8(%rbp), %rax
	popq	%rbp
	.cfi_def_cfa 7, 8
	ret
	.cfi_endproc
.LFE8758:
	.size	_ZN9__gnu_cxx17__normal_iteratorIPSt6threadSt6vectorIS1_SaIS1_EEEppEv, .-_ZN9__gnu_cxx17__normal_iteratorIPSt6threadSt6vectorIS1_SaIS1_EEEppEv
	.section	.text._ZNK9__gnu_cxx17__normal_iteratorIPSt6threadSt6vectorIS1_SaIS1_EEEdeEv,"axG",@progbits,_ZNK9__gnu_cxx17__normal_iteratorIPSt6threadSt6vectorIS1_SaIS1_EEEdeEv,comdat
	.align 2
	.weak	_ZNK9__gnu_cxx17__normal_iteratorIPSt6threadSt6vectorIS1_SaIS1_EEEdeEv
	.type	_ZNK9__gnu_cxx17__normal_iteratorIPSt6threadSt6vectorIS1_SaIS1_EEEdeEv, @function
_ZNK9__gnu_cxx17__normal_iteratorIPSt6threadSt6vectorIS1_SaIS1_EEEdeEv:
.LFB8759:
	.cfi_startproc
	pushq	%rbp
	.cfi_def_cfa_offset 16
	.cfi_offset 6, -16
	movq	%rsp, %rbp
	.cfi_def_cfa_register 6
	movq	%rdi, -8(%rbp)
	movq	-8(%rbp), %rax
	movq	(%rax), %rax
	popq	%rbp
	.cfi_def_cfa 7, 8
	ret
	.cfi_endproc
.LFE8759:
	.size	_ZNK9__gnu_cxx17__normal_iteratorIPSt6threadSt6vectorIS1_SaIS1_EEEdeEv, .-_ZNK9__gnu_cxx17__normal_iteratorIPSt6threadSt6vectorIS1_SaIS1_EEEdeEv
	.section	.text._ZNSt6vectorISt6threadSaIS0_EEC2Ev,"axG",@progbits,_ZNSt6vectorISt6threadSaIS0_EEC5Ev,comdat
	.align 2
	.weak	_ZNSt6vectorISt6threadSaIS0_EEC2Ev
	.type	_ZNSt6vectorISt6threadSaIS0_EEC2Ev, @function
_ZNSt6vectorISt6threadSaIS0_EEC2Ev:
.LFB8761:
	.cfi_startproc
	.cfi_personality 0x9b,DW.ref.__gxx_personality_v0
	.cfi_lsda 0x1b,.LLSDA8761
	pushq	%rbp
	.cfi_def_cfa_offset 16
	.cfi_offset 6, -16
	movq	%rsp, %rbp
	.cfi_def_cfa_register 6
	subq	$16, %rsp
	movq	%rdi, -8(%rbp)
	movq	-8(%rbp), %rax
	movq	%rax, %rdi
	call	_ZNSt12_Vector_baseISt6threadSaIS0_EEC2Ev
	nop
	leave
	.cfi_def_cfa 7, 8
	ret
	.cfi_endproc
.LFE8761:
	.section	.gcc_except_table
.LLSDA8761:
	.byte	0xff
	.byte	0xff
	.byte	0x1
	.uleb128 .LLSDACSE8761-.LLSDACSB8761
.LLSDACSB8761:
.LLSDACSE8761:
	.section	.text._ZNSt6vectorISt6threadSaIS0_EEC2Ev,"axG",@progbits,_ZNSt6vectorISt6threadSaIS0_EEC5Ev,comdat
	.size	_ZNSt6vectorISt6threadSaIS0_EEC2Ev, .-_ZNSt6vectorISt6threadSaIS0_EEC2Ev
	.weak	_ZNSt6vectorISt6threadSaIS0_EEC1Ev
	.set	_ZNSt6vectorISt6threadSaIS0_EEC1Ev,_ZNSt6vectorISt6threadSaIS0_EEC2Ev
	.section	.text._ZNSt6vectorISt6threadSaIS0_EED2Ev,"axG",@progbits,_ZNSt6vectorISt6threadSaIS0_EED5Ev,comdat
	.align 2
	.weak	_ZNSt6vectorISt6threadSaIS0_EED2Ev
	.type	_ZNSt6vectorISt6threadSaIS0_EED2Ev, @function
_ZNSt6vectorISt6threadSaIS0_EED2Ev:
.LFB8764:
	.cfi_startproc
	.cfi_personality 0x9b,DW.ref.__gxx_personality_v0
	.cfi_lsda 0x1b,.LLSDA8764
	pushq	%rbp
	.cfi_def_cfa_offset 16
	.cfi_offset 6, -16
	movq	%rsp, %rbp
	.cfi_def_cfa_register 6
	subq	$16, %rsp
	movq	%rdi, -8(%rbp)
	movq	-8(%rbp), %rax
	movq	%rax, %rdi
	call	_ZNSt12_Vector_baseISt6threadSaIS0_EE19_M_get_Tp_allocatorEv
	movq	%rax, %rdx
	movq	-8(%rbp), %rax
	movq	8(%rax), %rcx
	movq	-8(%rbp), %rax
	movq	(%rax), %rax
	movq	%rcx, %rsi
	movq	%rax, %rdi
	call	_ZSt8_DestroyIPSt6threadS0_EvT_S2_RSaIT0_E
	movq	-8(%rbp), %rax
	movq	%rax, %rdi
	call	_ZNSt12_Vector_baseISt6threadSaIS0_EED2Ev
	nop
	leave
	.cfi_def_cfa 7, 8
	ret
	.cfi_endproc
.LFE8764:
	.section	.gcc_except_table
.LLSDA8764:
	.byte	0xff
	.byte	0xff
	.byte	0x1
	.uleb128 .LLSDACSE8764-.LLSDACSB8764
.LLSDACSB8764:
.LLSDACSE8764:
	.section	.text._ZNSt6vectorISt6threadSaIS0_EED2Ev,"axG",@progbits,_ZNSt6vectorISt6threadSaIS0_EED5Ev,comdat
	.size	_ZNSt6vectorISt6threadSaIS0_EED2Ev, .-_ZNSt6vectorISt6threadSaIS0_EED2Ev
	.weak	_ZNSt6vectorISt6threadSaIS0_EED1Ev
	.set	_ZNSt6vectorISt6threadSaIS0_EED1Ev,_ZNSt6vectorISt6threadSaIS0_EED2Ev
	.section	.text._ZNSt5tupleIJM10echoServerFvvES0_EEC2IS2_S0_Lb1EEEOT_OT0_,"axG",@progbits,_ZNSt5tupleIJM10echoServerFvvES0_EEC5IS2_S0_Lb1EEEOT_OT0_,comdat
	.align 2
	.weak	_ZNSt5tupleIJM10echoServerFvvES0_EEC2IS2_S0_Lb1EEEOT_OT0_
	.type	_ZNSt5tupleIJM10echoServerFvvES0_EEC2IS2_S0_Lb1EEEOT_OT0_, @function
_ZNSt5tupleIJM10echoServerFvvES0_EEC2IS2_S0_Lb1EEEOT_OT0_:
.LFB9046:
	.cfi_startproc
	pushq	%rbp
	.cfi_def_cfa_offset 16
	.cfi_offset 6, -16
	movq	%rsp, %rbp
	.cfi_def_cfa_register 6
	pushq	%r12
	pushq	%rbx
	subq	$32, %rsp
	.cfi_offset 12, -24
	.cfi_offset 3, -32
	movq	%rdi, -24(%rbp)
	movq	%rsi, -32(%rbp)
	movq	%rdx, -40(%rbp)
	movq	-24(%rbp), %rbx
	movq	-40(%rbp), %rax
	movq	%rax, %rdi
	call	_ZSt7forwardI10echoServerEOT_RNSt16remove_referenceIS1_E4typeE
	movq	%rax, %r12
	movq	-32(%rbp), %rax
	movq	%rax, %rdi
	call	_ZSt7forwardIM10echoServerFvvEEOT_RNSt16remove_referenceIS3_E4typeE
	movq	%r12, %rdx
	movq	%rax, %rsi
	movq	%rbx, %rdi
	call	_ZNSt11_Tuple_implILm0EJM10echoServerFvvES0_EEC2IS2_JS0_EvEEOT_DpOT0_
	nop
	addq	$32, %rsp
	popq	%rbx
	popq	%r12
	popq	%rbp
	.cfi_def_cfa 7, 8
	ret
	.cfi_endproc
.LFE9046:
	.size	_ZNSt5tupleIJM10echoServerFvvES0_EEC2IS2_S0_Lb1EEEOT_OT0_, .-_ZNSt5tupleIJM10echoServerFvvES0_EEC2IS2_S0_Lb1EEEOT_OT0_
	.weak	_ZNSt5tupleIJM10echoServerFvvES0_EEC1IS2_S0_Lb1EEEOT_OT0_
	.set	_ZNSt5tupleIJM10echoServerFvvES0_EEC1IS2_S0_Lb1EEEOT_OT0_,_ZNSt5tupleIJM10echoServerFvvES0_EEC2IS2_S0_Lb1EEEOT_OT0_
	.section	.text._ZNSt11_Tuple_implILm0EJM10echoServerFvvES0_EEC2IS2_JS0_EvEEOT_DpOT0_,"axG",@progbits,_ZNSt11_Tuple_implILm0EJM10echoServerFvvES0_EEC5IS2_JS0_EvEEOT_DpOT0_,comdat
	.align 2
	.weak	_ZNSt11_Tuple_implILm0EJM10echoServerFvvES0_EEC2IS2_JS0_EvEEOT_DpOT0_
	.type	_ZNSt11_Tuple_implILm0EJM10echoServerFvvES0_EEC2IS2_JS0_EvEEOT_DpOT0_, @function
_ZNSt11_Tuple_implILm0EJM10echoServerFvvES0_EEC2IS2_JS0_EvEEOT_DpOT0_:
.LFB9049:
	.cfi_startproc
	pushq	%rbp
	.cfi_def_cfa_offset 16
	.cfi_offset 6, -16
	movq	%rsp, %rbp
	.cfi_def_cfa_register 6
	pushq	%rbx
	subq	$40, %rsp
	.cfi_offset 3, -24
	movq	%rdi, -24(%rbp)
	movq	%rsi, -32(%rbp)
	movq	%rdx, -40(%rbp)
	movq	-24(%rbp), %rbx
	movq	-40(%rbp), %rax
	movq	%rax, %rdi
	call	_ZSt7forwardI10echoServerEOT_RNSt16remove_referenceIS1_E4typeE
	movq	%rax, %rsi
	movq	%rbx, %rdi
	call	_ZNSt11_Tuple_implILm1EJ10echoServerEEC2IS0_EEOT_
	movq	-24(%rbp), %rax
	leaq	128(%rax), %rbx
	movq	-32(%rbp), %rax
	movq	%rax, %rdi
	call	_ZSt7forwardIM10echoServerFvvEEOT_RNSt16remove_referenceIS3_E4typeE
	movq	%rax, %rsi
	movq	%rbx, %rdi
	call	_ZNSt10_Head_baseILm0EM10echoServerFvvELb0EEC2IS2_EEOT_
	nop
	addq	$40, %rsp
	popq	%rbx
	popq	%rbp
	.cfi_def_cfa 7, 8
	ret
	.cfi_endproc
.LFE9049:
	.size	_ZNSt11_Tuple_implILm0EJM10echoServerFvvES0_EEC2IS2_JS0_EvEEOT_DpOT0_, .-_ZNSt11_Tuple_implILm0EJM10echoServerFvvES0_EEC2IS2_JS0_EvEEOT_DpOT0_
	.weak	_ZNSt11_Tuple_implILm0EJM10echoServerFvvES0_EEC1IS2_JS0_EvEEOT_DpOT0_
	.set	_ZNSt11_Tuple_implILm0EJM10echoServerFvvES0_EEC1IS2_JS0_EvEEOT_DpOT0_,_ZNSt11_Tuple_implILm0EJM10echoServerFvvES0_EEC2IS2_JS0_EvEEOT_DpOT0_
	.section	.text._ZNSt11_Tuple_implILm1EJ10echoServerEEC2IS0_EEOT_,"axG",@progbits,_ZNSt11_Tuple_implILm1EJ10echoServerEEC5IS0_EEOT_,comdat
	.align 2
	.weak	_ZNSt11_Tuple_implILm1EJ10echoServerEEC2IS0_EEOT_
	.type	_ZNSt11_Tuple_implILm1EJ10echoServerEEC2IS0_EEOT_, @function
_ZNSt11_Tuple_implILm1EJ10echoServerEEC2IS0_EEOT_:
.LFB9052:
	.cfi_startproc
	pushq	%rbp
	.cfi_def_cfa_offset 16
	.cfi_offset 6, -16
	movq	%rsp, %rbp
	.cfi_def_cfa_register 6
	pushq	%rbx
	subq	$24, %rsp
	.cfi_offset 3, -24
	movq	%rdi, -24(%rbp)
	movq	%rsi, -32(%rbp)
	movq	-24(%rbp), %rbx
	movq	-32(%rbp), %rax
	movq	%rax, %rdi
	call	_ZSt7forwardI10echoServerEOT_RNSt16remove_referenceIS1_E4typeE
	movq	%rax, %rsi
	movq	%rbx, %rdi
	call	_ZNSt10_Head_baseILm1E10echoServerLb0EEC2IS0_EEOT_
	nop
	addq	$24, %rsp
	popq	%rbx
	popq	%rbp
	.cfi_def_cfa 7, 8
	ret
	.cfi_endproc
.LFE9052:
	.size	_ZNSt11_Tuple_implILm1EJ10echoServerEEC2IS0_EEOT_, .-_ZNSt11_Tuple_implILm1EJ10echoServerEEC2IS0_EEOT_
	.weak	_ZNSt11_Tuple_implILm1EJ10echoServerEEC1IS0_EEOT_
	.set	_ZNSt11_Tuple_implILm1EJ10echoServerEEC1IS0_EEOT_,_ZNSt11_Tuple_implILm1EJ10echoServerEEC2IS0_EEOT_
	.section	.text._ZNSt10_Head_baseILm1E10echoServerLb0EEC2IS0_EEOT_,"axG",@progbits,_ZNSt10_Head_baseILm1E10echoServerLb0EEC5IS0_EEOT_,comdat
	.align 2
	.weak	_ZNSt10_Head_baseILm1E10echoServerLb0EEC2IS0_EEOT_
	.type	_ZNSt10_Head_baseILm1E10echoServerLb0EEC2IS0_EEOT_, @function
_ZNSt10_Head_baseILm1E10echoServerLb0EEC2IS0_EEOT_:
.LFB9055:
	.cfi_startproc
	pushq	%rbp
	.cfi_def_cfa_offset 16
	.cfi_offset 6, -16
	movq	%rsp, %rbp
	.cfi_def_cfa_register 6
	pushq	%rbx
	subq	$24, %rsp
	.cfi_offset 3, -24
	movq	%rdi, -24(%rbp)
	movq	%rsi, -32(%rbp)
	movq	-32(%rbp), %rax
	movq	%rax, %rdi
	call	_ZSt7forwardI10echoServerEOT_RNSt16remove_referenceIS1_E4typeE
	movq	%rax, %rdx
	movq	-24(%rbp), %rax
	movq	(%rdx), %rcx
	movq	8(%rdx), %rbx
	movq	%rcx, (%rax)
	movq	%rbx, 8(%rax)
	movq	16(%rdx), %rcx
	movq	24(%rdx), %rbx
	movq	%rcx, 16(%rax)
	movq	%rbx, 24(%rax)
	movq	32(%rdx), %rcx
	movq	40(%rdx), %rbx
	movq	%rcx, 32(%rax)
	movq	%rbx, 40(%rax)
	movq	48(%rdx), %rcx
	movq	56(%rdx), %rbx
	movq	%rcx, 48(%rax)
	movq	%rbx, 56(%rax)
	movq	64(%rdx), %rcx
	movq	72(%rdx), %rbx
	movq	%rcx, 64(%rax)
	movq	%rbx, 72(%rax)
	movq	80(%rdx), %rcx
	movq	88(%rdx), %rbx
	movq	%rcx, 80(%rax)
	movq	%rbx, 88(%rax)
	movq	96(%rdx), %rcx
	movq	104(%rdx), %rbx
	movq	%rcx, 96(%rax)
	movq	%rbx, 104(%rax)
	movq	112(%rdx), %rcx
	movq	%rcx, 112(%rax)
	movl	120(%rdx), %edx
	movl	%edx, 120(%rax)
	nop
	addq	$24, %rsp
	popq	%rbx
	popq	%rbp
	.cfi_def_cfa 7, 8
	ret
	.cfi_endproc
.LFE9055:
	.size	_ZNSt10_Head_baseILm1E10echoServerLb0EEC2IS0_EEOT_, .-_ZNSt10_Head_baseILm1E10echoServerLb0EEC2IS0_EEOT_
	.weak	_ZNSt10_Head_baseILm1E10echoServerLb0EEC1IS0_EEOT_
	.set	_ZNSt10_Head_baseILm1E10echoServerLb0EEC1IS0_EEOT_,_ZNSt10_Head_baseILm1E10echoServerLb0EEC2IS0_EEOT_
	.section	.text._ZNSt11_Tuple_implILm1EJ10echoServerEE7_M_headERS1_,"axG",@progbits,_ZNSt11_Tuple_implILm1EJ10echoServerEE7_M_headERS1_,comdat
	.weak	_ZNSt11_Tuple_implILm1EJ10echoServerEE7_M_headERS1_
	.type	_ZNSt11_Tuple_implILm1EJ10echoServerEE7_M_headERS1_, @function
_ZNSt11_Tuple_implILm1EJ10echoServerEE7_M_headERS1_:
.LFB9058:
	.cfi_startproc
	pushq	%rbp
	.cfi_def_cfa_offset 16
	.cfi_offset 6, -16
	movq	%rsp, %rbp
	.cfi_def_cfa_register 6
	subq	$16, %rsp
	movq	%rdi, -8(%rbp)
	movq	-8(%rbp), %rax
	movq	%rax, %rdi
	call	_ZNSt10_Head_baseILm1E10echoServerLb0EE7_M_headERS1_
	leave
	.cfi_def_cfa 7, 8
	ret
	.cfi_endproc
.LFE9058:
	.size	_ZNSt11_Tuple_implILm1EJ10echoServerEE7_M_headERS1_, .-_ZNSt11_Tuple_implILm1EJ10echoServerEE7_M_headERS1_
	.section	.text._ZNSt10_Head_baseILm1E10echoServerLb0EE7_M_headERS1_,"axG",@progbits,_ZNSt10_Head_baseILm1E10echoServerLb0EE7_M_headERS1_,comdat
	.weak	_ZNSt10_Head_baseILm1E10echoServerLb0EE7_M_headERS1_
	.type	_ZNSt10_Head_baseILm1E10echoServerLb0EE7_M_headERS1_, @function
_ZNSt10_Head_baseILm1E10echoServerLb0EE7_M_headERS1_:
.LFB9059:
	.cfi_startproc
	pushq	%rbp
	.cfi_def_cfa_offset 16
	.cfi_offset 6, -16
	movq	%rsp, %rbp
	.cfi_def_cfa_register 6
	movq	%rdi, -8(%rbp)
	movq	-8(%rbp), %rax
	popq	%rbp
	.cfi_def_cfa 7, 8
	ret
	.cfi_endproc
.LFE9059:
	.size	_ZNSt10_Head_baseILm1E10echoServerLb0EE7_M_headERS1_, .-_ZNSt10_Head_baseILm1E10echoServerLb0EE7_M_headERS1_
	.section	.text._ZNSt11_Tuple_implILm1EJ10echoServerEEC2EOS1_,"axG",@progbits,_ZNSt11_Tuple_implILm1EJ10echoServerEEC5EOS1_,comdat
	.align 2
	.weak	_ZNSt11_Tuple_implILm1EJ10echoServerEEC2EOS1_
	.type	_ZNSt11_Tuple_implILm1EJ10echoServerEEC2EOS1_, @function
_ZNSt11_Tuple_implILm1EJ10echoServerEEC2EOS1_:
.LFB9060:
	.cfi_startproc
	pushq	%rbp
	.cfi_def_cfa_offset 16
	.cfi_offset 6, -16
	movq	%rsp, %rbp
	.cfi_def_cfa_register 6
	pushq	%rbx
	subq	$24, %rsp
	.cfi_offset 3, -24
	movq	%rdi, -24(%rbp)
	movq	%rsi, -32(%rbp)
	movq	-24(%rbp), %rbx
	movq	-32(%rbp), %rax
	movq	%rax, %rdi
	call	_ZNSt11_Tuple_implILm1EJ10echoServerEE7_M_headERS1_
	movq	%rax, %rdi
	call	_ZSt7forwardI10echoServerEOT_RNSt16remove_referenceIS1_E4typeE
	movq	%rax, %rsi
	movq	%rbx, %rdi
	call	_ZNSt10_Head_baseILm1E10echoServerLb0EEC2IS0_EEOT_
	nop
	addq	$24, %rsp
	popq	%rbx
	popq	%rbp
	.cfi_def_cfa 7, 8
	ret
	.cfi_endproc
.LFE9060:
	.size	_ZNSt11_Tuple_implILm1EJ10echoServerEEC2EOS1_, .-_ZNSt11_Tuple_implILm1EJ10echoServerEEC2EOS1_
	.weak	_ZNSt11_Tuple_implILm1EJ10echoServerEEC1EOS1_
	.set	_ZNSt11_Tuple_implILm1EJ10echoServerEEC1EOS1_,_ZNSt11_Tuple_implILm1EJ10echoServerEEC2EOS1_
	.section	.text._ZNSt5tupleIJM10echoServerFvvES0_EEC2EOS3_,"axG",@progbits,_ZNSt5tupleIJM10echoServerFvvES0_EEC5EOS3_,comdat
	.align 2
	.weak	_ZNSt5tupleIJM10echoServerFvvES0_EEC2EOS3_
	.type	_ZNSt5tupleIJM10echoServerFvvES0_EEC2EOS3_, @function
_ZNSt5tupleIJM10echoServerFvvES0_EEC2EOS3_:
.LFB9063:
	.cfi_startproc
	pushq	%rbp
	.cfi_def_cfa_offset 16
	.cfi_offset 6, -16
	movq	%rsp, %rbp
	.cfi_def_cfa_register 6
	subq	$16, %rsp
	movq	%rdi, -8(%rbp)
	movq	%rsi, -16(%rbp)
	movq	-8(%rbp), %rax
	movq	-16(%rbp), %rdx
	movq	%rdx, %rsi
	movq	%rax, %rdi
	call	_ZNSt11_Tuple_implILm0EJM10echoServerFvvES0_EEC2EOS3_
	nop
	leave
	.cfi_def_cfa 7, 8
	ret
	.cfi_endproc
.LFE9063:
	.size	_ZNSt5tupleIJM10echoServerFvvES0_EEC2EOS3_, .-_ZNSt5tupleIJM10echoServerFvvES0_EEC2EOS3_
	.weak	_ZNSt5tupleIJM10echoServerFvvES0_EEC1EOS3_
	.set	_ZNSt5tupleIJM10echoServerFvvES0_EEC1EOS3_,_ZNSt5tupleIJM10echoServerFvvES0_EEC2EOS3_
	.section	.text._ZNSt6thread14__make_invokerIM10echoServerFvvEJS1_EEENS_8_InvokerISt5tupleIJNSt5decayIT_E4typeEDpNS6_IT0_E4typeEEEEEOS7_DpOSA_,"axG",@progbits,_ZNSt6thread14__make_invokerIM10echoServerFvvEJS1_EEENS_8_InvokerISt5tupleIJNSt5decayIT_E4typeEDpNS6_IT0_E4typeEEEEEOS7_DpOSA_,comdat
	.weak	_ZNSt6thread14__make_invokerIM10echoServerFvvEJS1_EEENS_8_InvokerISt5tupleIJNSt5decayIT_E4typeEDpNS6_IT0_E4typeEEEEEOS7_DpOSA_
	.type	_ZNSt6thread14__make_invokerIM10echoServerFvvEJS1_EEENS_8_InvokerISt5tupleIJNSt5decayIT_E4typeEDpNS6_IT0_E4typeEEEEEOS7_DpOSA_, @function
_ZNSt6thread14__make_invokerIM10echoServerFvvEJS1_EEENS_8_InvokerISt5tupleIJNSt5decayIT_E4typeEDpNS6_IT0_E4typeEEEEEOS7_DpOSA_:
.LFB9040:
	.cfi_startproc
	pushq	%rbp
	.cfi_def_cfa_offset 16
	.cfi_offset 6, -16
	movq	%rsp, %rbp
	.cfi_def_cfa_register 6
	pushq	%r12
	pushq	%rbx
	subq	$32, %rsp
	.cfi_offset 12, -24
	.cfi_offset 3, -32
	movq	%rdi, -24(%rbp)
	movq	%rsi, -32(%rbp)
	movq	%rdx, -40(%rbp)
	movq	-24(%rbp), %rbx
	movq	-32(%rbp), %rax
	movq	%rax, %rdi
	call	_ZSt7forwardIM10echoServerFvvEEOT_RNSt16remove_referenceIS3_E4typeE
	movq	%rax, %r12
	movq	-40(%rbp), %rax
	movq	%rax, %rdi
	call	_ZSt7forwardI10echoServerEOT_RNSt16remove_referenceIS1_E4typeE
	movq	%rax, %rdx
	movq	%r12, %rsi
	movq	%rbx, %rdi
	call	_ZNSt5tupleIJM10echoServerFvvES0_EEC1IS2_S0_Lb1EEEOT_OT0_
	movq	-24(%rbp), %rax
	addq	$32, %rsp
	popq	%rbx
	popq	%r12
	popq	%rbp
	.cfi_def_cfa 7, 8
	ret
	.cfi_endproc
.LFE9040:
	.size	_ZNSt6thread14__make_invokerIM10echoServerFvvEJS1_EEENS_8_InvokerISt5tupleIJNSt5decayIT_E4typeEDpNS6_IT0_E4typeEEEEEOS7_DpOSA_, .-_ZNSt6thread14__make_invokerIM10echoServerFvvEJS1_EEENS_8_InvokerISt5tupleIJNSt5decayIT_E4typeEDpNS6_IT0_E4typeEEEEEOS7_DpOSA_
	.section	.text._ZSt13__invoke_implIvM10echoServerFvvES0_JEET_St19__invoke_memfun_refOT0_OT1_DpOT2_,"axG",@progbits,_ZSt13__invoke_implIvM10echoServerFvvES0_JEET_St19__invoke_memfun_refOT0_OT1_DpOT2_,comdat
	.weak	_ZSt13__invoke_implIvM10echoServerFvvES0_JEET_St19__invoke_memfun_refOT0_OT1_DpOT2_
	.type	_ZSt13__invoke_implIvM10echoServerFvvES0_JEET_St19__invoke_memfun_refOT0_OT1_DpOT2_, @function
_ZSt13__invoke_implIvM10echoServerFvvES0_JEET_St19__invoke_memfun_refOT0_OT1_DpOT2_:
.LFB9065:
	.cfi_startproc
	pushq	%rbp
	.cfi_def_cfa_offset 16
	.cfi_offset 6, -16
	movq	%rsp, %rbp
	.cfi_def_cfa_register 6
	subq	$16, %rsp
	movq	%rdi, -8(%rbp)
	movq	%rsi, -16(%rbp)
	movq	-16(%rbp), %rax
	movq	%rax, %rdi
	call	_ZSt8__invfwdI10echoServerS0_EOT0_RNSt16remove_referenceIT_E4typeE
	movq	-8(%rbp), %rdx
	movq	8(%rdx), %rdx
	leaq	(%rax,%rdx), %rcx
	movq	-8(%rbp), %rdx
	movq	(%rdx), %rdx
	andl	$1, %edx
	testq	%rdx, %rdx
	je	.L164
	movq	-8(%rbp), %rdx
	movq	8(%rdx), %rdx
	addq	%rdx, %rax
	movq	(%rax), %rdx
	movq	-8(%rbp), %rax
	movq	(%rax), %rax
	subq	$1, %rax
	addq	%rdx, %rax
	movq	(%rax), %rax
	jmp	.L165
.L164:
	movq	-8(%rbp), %rax
	movq	(%rax), %rax
.L165:
	movq	%rcx, %rdi
	call	*%rax
	nop
	leave
	.cfi_def_cfa 7, 8
	ret
	.cfi_endproc
.LFE9065:
	.size	_ZSt13__invoke_implIvM10echoServerFvvES0_JEET_St19__invoke_memfun_refOT0_OT1_DpOT2_, .-_ZSt13__invoke_implIvM10echoServerFvvES0_JEET_St19__invoke_memfun_refOT0_OT1_DpOT2_
	.section	.text._ZSt7forwardINSt6thread8_InvokerISt5tupleIJM10echoServerFvvES3_EEEEEOT_RNSt16remove_referenceIS8_E4typeE,"axG",@progbits,_ZSt7forwardINSt6thread8_InvokerISt5tupleIJM10echoServerFvvES3_EEEEEOT_RNSt16remove_referenceIS8_E4typeE,comdat
	.weak	_ZSt7forwardINSt6thread8_InvokerISt5tupleIJM10echoServerFvvES3_EEEEEOT_RNSt16remove_referenceIS8_E4typeE
	.type	_ZSt7forwardINSt6thread8_InvokerISt5tupleIJM10echoServerFvvES3_EEEEEOT_RNSt16remove_referenceIS8_E4typeE, @function
_ZSt7forwardINSt6thread8_InvokerISt5tupleIJM10echoServerFvvES3_EEEEEOT_RNSt16remove_referenceIS8_E4typeE:
.LFB9067:
	.cfi_startproc
	pushq	%rbp
	.cfi_def_cfa_offset 16
	.cfi_offset 6, -16
	movq	%rsp, %rbp
	.cfi_def_cfa_register 6
	movq	%rdi, -8(%rbp)
	movq	-8(%rbp), %rax
	popq	%rbp
	.cfi_def_cfa 7, 8
	ret
	.cfi_endproc
.LFE9067:
	.size	_ZSt7forwardINSt6thread8_InvokerISt5tupleIJM10echoServerFvvES3_EEEEEOT_RNSt16remove_referenceIS8_E4typeE, .-_ZSt7forwardINSt6thread8_InvokerISt5tupleIJM10echoServerFvvES3_EEEEEOT_RNSt16remove_referenceIS8_E4typeE
	.section	.text._ZNSt6thread13_S_make_stateINS_8_InvokerISt5tupleIJM10echoServerFvvES3_EEEEEESt10unique_ptrINS_6_StateESt14default_deleteIS9_EEOT_,"axG",@progbits,_ZNSt6thread13_S_make_stateINS_8_InvokerISt5tupleIJM10echoServerFvvES3_EEEEEESt10unique_ptrINS_6_StateESt14default_deleteIS9_EEOT_,comdat
	.weak	_ZNSt6thread13_S_make_stateINS_8_InvokerISt5tupleIJM10echoServerFvvES3_EEEEEESt10unique_ptrINS_6_StateESt14default_deleteIS9_EEOT_
	.type	_ZNSt6thread13_S_make_stateINS_8_InvokerISt5tupleIJM10echoServerFvvES3_EEEEEESt10unique_ptrINS_6_StateESt14default_deleteIS9_EEOT_, @function
_ZNSt6thread13_S_make_stateINS_8_InvokerISt5tupleIJM10echoServerFvvES3_EEEEEESt10unique_ptrINS_6_StateESt14default_deleteIS9_EEOT_:
.LFB9066:
	.cfi_startproc
	pushq	%rbp
	.cfi_def_cfa_offset 16
	.cfi_offset 6, -16
	movq	%rsp, %rbp
	.cfi_def_cfa_register 6
	pushq	%r12
	pushq	%rbx
	subq	$16, %rsp
	.cfi_offset 12, -24
	.cfi_offset 3, -32
	movq	%rdi, -24(%rbp)
	movq	%rsi, -32(%rbp)
	movq	-32(%rbp), %rax
	movq	%rax, %rdi
	call	_ZSt7forwardINSt6thread8_InvokerISt5tupleIJM10echoServerFvvES3_EEEEEOT_RNSt16remove_referenceIS8_E4typeE
	movq	%rax, %r12
	movl	$152, %edi
	call	_Znwm@PLT
	movq	%rax, %rbx
	movq	%r12, %rsi
	movq	%rbx, %rdi
	call	_ZNSt6thread11_State_implINS_8_InvokerISt5tupleIJM10echoServerFvvES3_EEEEEC1EOS7_
	movq	-24(%rbp), %rax
	movq	%rbx, %rsi
	movq	%rax, %rdi
	call	_ZNSt10unique_ptrINSt6thread6_StateESt14default_deleteIS1_EEC1IS3_vEEPS1_
	movq	-24(%rbp), %rax
	addq	$16, %rsp
	popq	%rbx
	popq	%r12
	popq	%rbp
	.cfi_def_cfa 7, 8
	ret
	.cfi_endproc
.LFE9066:
	.size	_ZNSt6thread13_S_make_stateINS_8_InvokerISt5tupleIJM10echoServerFvvES3_EEEEEESt10unique_ptrINS_6_StateESt14default_deleteIS9_EEOT_, .-_ZNSt6thread13_S_make_stateINS_8_InvokerISt5tupleIJM10echoServerFvvES3_EEEEEESt10unique_ptrINS_6_StateESt14default_deleteIS9_EEOT_
	.section	.text._ZNSt10unique_ptrINSt6thread6_StateESt14default_deleteIS1_EED2Ev,"axG",@progbits,_ZNSt10unique_ptrINSt6thread6_StateESt14default_deleteIS1_EED5Ev,comdat
	.align 2
	.weak	_ZNSt10unique_ptrINSt6thread6_StateESt14default_deleteIS1_EED2Ev
	.type	_ZNSt10unique_ptrINSt6thread6_StateESt14default_deleteIS1_EED2Ev, @function
_ZNSt10unique_ptrINSt6thread6_StateESt14default_deleteIS1_EED2Ev:
.LFB9069:
	.cfi_startproc
	pushq	%rbp
	.cfi_def_cfa_offset 16
	.cfi_offset 6, -16
	movq	%rsp, %rbp
	.cfi_def_cfa_register 6
	subq	$32, %rsp
	movq	%rdi, -24(%rbp)
	movq	-24(%rbp), %rax
	movq	%rax, %rdi
	call	_ZNSt15__uniq_ptr_implINSt6thread6_StateESt14default_deleteIS1_EE6_M_ptrEv
	movq	%rax, -8(%rbp)
	movq	-8(%rbp), %rax
	movq	(%rax), %rax
	testq	%rax, %rax
	je	.L172
	movq	-24(%rbp), %rax
	movq	%rax, %rdi
	call	_ZNSt10unique_ptrINSt6thread6_StateESt14default_deleteIS1_EE11get_deleterEv
	movq	%rax, %rdx
	movq	-8(%rbp), %rax
	movq	(%rax), %rax
	movq	%rax, %rsi
	movq	%rdx, %rdi
	call	_ZNKSt14default_deleteINSt6thread6_StateEEclEPS1_
.L172:
	movq	-8(%rbp), %rax
	movq	$0, (%rax)
	nop
	leave
	.cfi_def_cfa 7, 8
	ret
	.cfi_endproc
.LFE9069:
	.size	_ZNSt10unique_ptrINSt6thread6_StateESt14default_deleteIS1_EED2Ev, .-_ZNSt10unique_ptrINSt6thread6_StateESt14default_deleteIS1_EED2Ev
	.weak	_ZNSt10unique_ptrINSt6thread6_StateESt14default_deleteIS1_EED1Ev
	.set	_ZNSt10unique_ptrINSt6thread6_StateESt14default_deleteIS1_EED1Ev,_ZNSt10unique_ptrINSt6thread6_StateESt14default_deleteIS1_EED2Ev
	.section	.text._ZSt7forwardISt6threadEOT_RNSt16remove_referenceIS1_E4typeE,"axG",@progbits,_ZSt7forwardISt6threadEOT_RNSt16remove_referenceIS1_E4typeE,comdat
	.weak	_ZSt7forwardISt6threadEOT_RNSt16remove_referenceIS1_E4typeE
	.type	_ZSt7forwardISt6threadEOT_RNSt16remove_referenceIS1_E4typeE, @function
_ZSt7forwardISt6threadEOT_RNSt16remove_referenceIS1_E4typeE:
.LFB9079:
	.cfi_startproc
	pushq	%rbp
	.cfi_def_cfa_offset 16
	.cfi_offset 6, -16
	movq	%rsp, %rbp
	.cfi_def_cfa_register 6
	movq	%rdi, -8(%rbp)
	movq	-8(%rbp), %rax
	popq	%rbp
	.cfi_def_cfa 7, 8
	ret
	.cfi_endproc
.LFE9079:
	.size	_ZSt7forwardISt6threadEOT_RNSt16remove_referenceIS1_E4typeE, .-_ZSt7forwardISt6threadEOT_RNSt16remove_referenceIS1_E4typeE
	.section	.text._ZNSt6vectorISt6threadSaIS0_EE12emplace_backIJS0_EEEvDpOT_,"axG",@progbits,_ZNSt6vectorISt6threadSaIS0_EE12emplace_backIJS0_EEEvDpOT_,comdat
	.align 2
	.weak	_ZNSt6vectorISt6threadSaIS0_EE12emplace_backIJS0_EEEvDpOT_
	.type	_ZNSt6vectorISt6threadSaIS0_EE12emplace_backIJS0_EEEvDpOT_, @function
_ZNSt6vectorISt6threadSaIS0_EE12emplace_backIJS0_EEEvDpOT_:
.LFB9078:
	.cfi_startproc
	pushq	%rbp
	.cfi_def_cfa_offset 16
	.cfi_offset 6, -16
	movq	%rsp, %rbp
	.cfi_def_cfa_register 6
	pushq	%rbx
	subq	$24, %rsp
	.cfi_offset 3, -24
	movq	%rdi, -24(%rbp)
	movq	%rsi, -32(%rbp)
	movq	-24(%rbp), %rax
	movq	8(%rax), %rdx
	movq	-24(%rbp), %rax
	movq	16(%rax), %rax
	cmpq	%rax, %rdx
	je	.L176
	movq	-32(%rbp), %rax
	movq	%rax, %rdi
	call	_ZSt7forwardISt6threadEOT_RNSt16remove_referenceIS1_E4typeE
	movq	%rax, %rdx
	movq	-24(%rbp), %rax
	movq	8(%rax), %rcx
	movq	-24(%rbp), %rax
	movq	%rcx, %rsi
	movq	%rax, %rdi
	call	_ZNSt16allocator_traitsISaISt6threadEE9constructIS0_JS0_EEEvRS1_PT_DpOT0_
	movq	-24(%rbp), %rax
	movq	8(%rax), %rax
	leaq	8(%rax), %rdx
	movq	-24(%rbp), %rax
	movq	%rdx, 8(%rax)
	jmp	.L178
.L176:
	movq	-32(%rbp), %rax
	movq	%rax, %rdi
	call	_ZSt7forwardISt6threadEOT_RNSt16remove_referenceIS1_E4typeE
	movq	%rax, %rbx
	movq	-24(%rbp), %rax
	movq	%rax, %rdi
	call	_ZNSt6vectorISt6threadSaIS0_EE3endEv
	movq	%rax, %rcx
	movq	-24(%rbp), %rax
	movq	%rbx, %rdx
	movq	%rcx, %rsi
	movq	%rax, %rdi
	call	_ZNSt6vectorISt6threadSaIS0_EE17_M_realloc_insertIJS0_EEEvN9__gnu_cxx17__normal_iteratorIPS0_S2_EEDpOT_
.L178:
	nop
	addq	$24, %rsp
	popq	%rbx
	popq	%rbp
	.cfi_def_cfa 7, 8
	ret
	.cfi_endproc
.LFE9078:
	.size	_ZNSt6vectorISt6threadSaIS0_EE12emplace_backIJS0_EEEvDpOT_, .-_ZNSt6vectorISt6threadSaIS0_EE12emplace_backIJS0_EEEvDpOT_
	.section	.text._ZNSt5tupleIJM14packetAnalyserFvvES0_EEC2IS2_S0_Lb1EEEOT_OT0_,"axG",@progbits,_ZNSt5tupleIJM14packetAnalyserFvvES0_EEC5IS2_S0_Lb1EEEOT_OT0_,comdat
	.align 2
	.weak	_ZNSt5tupleIJM14packetAnalyserFvvES0_EEC2IS2_S0_Lb1EEEOT_OT0_
	.type	_ZNSt5tupleIJM14packetAnalyserFvvES0_EEC2IS2_S0_Lb1EEEOT_OT0_, @function
_ZNSt5tupleIJM14packetAnalyserFvvES0_EEC2IS2_S0_Lb1EEEOT_OT0_:
.LFB9087:
	.cfi_startproc
	pushq	%rbp
	.cfi_def_cfa_offset 16
	.cfi_offset 6, -16
	movq	%rsp, %rbp
	.cfi_def_cfa_register 6
	pushq	%r12
	pushq	%rbx
	subq	$32, %rsp
	.cfi_offset 12, -24
	.cfi_offset 3, -32
	movq	%rdi, -24(%rbp)
	movq	%rsi, -32(%rbp)
	movq	%rdx, -40(%rbp)
	movq	-24(%rbp), %rbx
	movq	-40(%rbp), %rax
	movq	%rax, %rdi
	call	_ZSt7forwardI14packetAnalyserEOT_RNSt16remove_referenceIS1_E4typeE
	movq	%rax, %r12
	movq	-32(%rbp), %rax
	movq	%rax, %rdi
	call	_ZSt7forwardIM14packetAnalyserFvvEEOT_RNSt16remove_referenceIS3_E4typeE
	movq	%r12, %rdx
	movq	%rax, %rsi
	movq	%rbx, %rdi
	call	_ZNSt11_Tuple_implILm0EJM14packetAnalyserFvvES0_EEC2IS2_JS0_EvEEOT_DpOT0_
	nop
	addq	$32, %rsp
	popq	%rbx
	popq	%r12
	popq	%rbp
	.cfi_def_cfa 7, 8
	ret
	.cfi_endproc
.LFE9087:
	.size	_ZNSt5tupleIJM14packetAnalyserFvvES0_EEC2IS2_S0_Lb1EEEOT_OT0_, .-_ZNSt5tupleIJM14packetAnalyserFvvES0_EEC2IS2_S0_Lb1EEEOT_OT0_
	.weak	_ZNSt5tupleIJM14packetAnalyserFvvES0_EEC1IS2_S0_Lb1EEEOT_OT0_
	.set	_ZNSt5tupleIJM14packetAnalyserFvvES0_EEC1IS2_S0_Lb1EEEOT_OT0_,_ZNSt5tupleIJM14packetAnalyserFvvES0_EEC2IS2_S0_Lb1EEEOT_OT0_
	.section	.text._ZNSt11_Tuple_implILm0EJM14packetAnalyserFvvES0_EEC2IS2_JS0_EvEEOT_DpOT0_,"axG",@progbits,_ZNSt11_Tuple_implILm0EJM14packetAnalyserFvvES0_EEC5IS2_JS0_EvEEOT_DpOT0_,comdat
	.align 2
	.weak	_ZNSt11_Tuple_implILm0EJM14packetAnalyserFvvES0_EEC2IS2_JS0_EvEEOT_DpOT0_
	.type	_ZNSt11_Tuple_implILm0EJM14packetAnalyserFvvES0_EEC2IS2_JS0_EvEEOT_DpOT0_, @function
_ZNSt11_Tuple_implILm0EJM14packetAnalyserFvvES0_EEC2IS2_JS0_EvEEOT_DpOT0_:
.LFB9090:
	.cfi_startproc
	pushq	%rbp
	.cfi_def_cfa_offset 16
	.cfi_offset 6, -16
	movq	%rsp, %rbp
	.cfi_def_cfa_register 6
	pushq	%rbx
	subq	$40, %rsp
	.cfi_offset 3, -24
	movq	%rdi, -24(%rbp)
	movq	%rsi, -32(%rbp)
	movq	%rdx, -40(%rbp)
	movq	-24(%rbp), %rbx
	movq	-40(%rbp), %rax
	movq	%rax, %rdi
	call	_ZSt7forwardI14packetAnalyserEOT_RNSt16remove_referenceIS1_E4typeE
	movq	%rax, %rsi
	movq	%rbx, %rdi
	call	_ZNSt11_Tuple_implILm1EJ14packetAnalyserEEC2IS0_EEOT_
	movq	-24(%rbp), %rax
	leaq	104(%rax), %rbx
	movq	-32(%rbp), %rax
	movq	%rax, %rdi
	call	_ZSt7forwardIM14packetAnalyserFvvEEOT_RNSt16remove_referenceIS3_E4typeE
	movq	%rax, %rsi
	movq	%rbx, %rdi
	call	_ZNSt10_Head_baseILm0EM14packetAnalyserFvvELb0EEC2IS2_EEOT_
	nop
	addq	$40, %rsp
	popq	%rbx
	popq	%rbp
	.cfi_def_cfa 7, 8
	ret
	.cfi_endproc
.LFE9090:
	.size	_ZNSt11_Tuple_implILm0EJM14packetAnalyserFvvES0_EEC2IS2_JS0_EvEEOT_DpOT0_, .-_ZNSt11_Tuple_implILm0EJM14packetAnalyserFvvES0_EEC2IS2_JS0_EvEEOT_DpOT0_
	.weak	_ZNSt11_Tuple_implILm0EJM14packetAnalyserFvvES0_EEC1IS2_JS0_EvEEOT_DpOT0_
	.set	_ZNSt11_Tuple_implILm0EJM14packetAnalyserFvvES0_EEC1IS2_JS0_EvEEOT_DpOT0_,_ZNSt11_Tuple_implILm0EJM14packetAnalyserFvvES0_EEC2IS2_JS0_EvEEOT_DpOT0_
	.section	.text._ZNSt11_Tuple_implILm1EJ14packetAnalyserEEC2IS0_EEOT_,"axG",@progbits,_ZNSt11_Tuple_implILm1EJ14packetAnalyserEEC5IS0_EEOT_,comdat
	.align 2
	.weak	_ZNSt11_Tuple_implILm1EJ14packetAnalyserEEC2IS0_EEOT_
	.type	_ZNSt11_Tuple_implILm1EJ14packetAnalyserEEC2IS0_EEOT_, @function
_ZNSt11_Tuple_implILm1EJ14packetAnalyserEEC2IS0_EEOT_:
.LFB9093:
	.cfi_startproc
	pushq	%rbp
	.cfi_def_cfa_offset 16
	.cfi_offset 6, -16
	movq	%rsp, %rbp
	.cfi_def_cfa_register 6
	pushq	%rbx
	subq	$24, %rsp
	.cfi_offset 3, -24
	movq	%rdi, -24(%rbp)
	movq	%rsi, -32(%rbp)
	movq	-24(%rbp), %rbx
	movq	-32(%rbp), %rax
	movq	%rax, %rdi
	call	_ZSt7forwardI14packetAnalyserEOT_RNSt16remove_referenceIS1_E4typeE
	movq	%rax, %rsi
	movq	%rbx, %rdi
	call	_ZNSt10_Head_baseILm1E14packetAnalyserLb0EEC2IS0_EEOT_
	nop
	addq	$24, %rsp
	popq	%rbx
	popq	%rbp
	.cfi_def_cfa 7, 8
	ret
	.cfi_endproc
.LFE9093:
	.size	_ZNSt11_Tuple_implILm1EJ14packetAnalyserEEC2IS0_EEOT_, .-_ZNSt11_Tuple_implILm1EJ14packetAnalyserEEC2IS0_EEOT_
	.weak	_ZNSt11_Tuple_implILm1EJ14packetAnalyserEEC1IS0_EEOT_
	.set	_ZNSt11_Tuple_implILm1EJ14packetAnalyserEEC1IS0_EEOT_,_ZNSt11_Tuple_implILm1EJ14packetAnalyserEEC2IS0_EEOT_
	.section	.text._ZNSt10_Head_baseILm1E14packetAnalyserLb0EEC2IS0_EEOT_,"axG",@progbits,_ZNSt10_Head_baseILm1E14packetAnalyserLb0EEC5IS0_EEOT_,comdat
	.align 2
	.weak	_ZNSt10_Head_baseILm1E14packetAnalyserLb0EEC2IS0_EEOT_
	.type	_ZNSt10_Head_baseILm1E14packetAnalyserLb0EEC2IS0_EEOT_, @function
_ZNSt10_Head_baseILm1E14packetAnalyserLb0EEC2IS0_EEOT_:
.LFB9096:
	.cfi_startproc
	pushq	%rbp
	.cfi_def_cfa_offset 16
	.cfi_offset 6, -16
	movq	%rsp, %rbp
	.cfi_def_cfa_register 6
	pushq	%rbx
	subq	$24, %rsp
	.cfi_offset 3, -24
	movq	%rdi, -24(%rbp)
	movq	%rsi, -32(%rbp)
	movq	-32(%rbp), %rax
	movq	%rax, %rdi
	call	_ZSt7forwardI14packetAnalyserEOT_RNSt16remove_referenceIS1_E4typeE
	movq	%rax, %rdx
	movq	-24(%rbp), %rax
	movq	(%rdx), %rcx
	movq	8(%rdx), %rbx
	movq	%rcx, (%rax)
	movq	%rbx, 8(%rax)
	movq	16(%rdx), %rcx
	movq	24(%rdx), %rbx
	movq	%rcx, 16(%rax)
	movq	%rbx, 24(%rax)
	movq	32(%rdx), %rcx
	movq	40(%rdx), %rbx
	movq	%rcx, 32(%rax)
	movq	%rbx, 40(%rax)
	movq	48(%rdx), %rcx
	movq	56(%rdx), %rbx
	movq	%rcx, 48(%rax)
	movq	%rbx, 56(%rax)
	movq	64(%rdx), %rcx
	movq	72(%rdx), %rbx
	movq	%rcx, 64(%rax)
	movq	%rbx, 72(%rax)
	movq	80(%rdx), %rcx
	movq	88(%rdx), %rbx
	movq	%rcx, 80(%rax)
	movq	%rbx, 88(%rax)
	movq	96(%rdx), %rdx
	movq	%rdx, 96(%rax)
	nop
	addq	$24, %rsp
	popq	%rbx
	popq	%rbp
	.cfi_def_cfa 7, 8
	ret
	.cfi_endproc
.LFE9096:
	.size	_ZNSt10_Head_baseILm1E14packetAnalyserLb0EEC2IS0_EEOT_, .-_ZNSt10_Head_baseILm1E14packetAnalyserLb0EEC2IS0_EEOT_
	.weak	_ZNSt10_Head_baseILm1E14packetAnalyserLb0EEC1IS0_EEOT_
	.set	_ZNSt10_Head_baseILm1E14packetAnalyserLb0EEC1IS0_EEOT_,_ZNSt10_Head_baseILm1E14packetAnalyserLb0EEC2IS0_EEOT_
	.section	.text._ZNSt11_Tuple_implILm1EJ14packetAnalyserEE7_M_headERS1_,"axG",@progbits,_ZNSt11_Tuple_implILm1EJ14packetAnalyserEE7_M_headERS1_,comdat
	.weak	_ZNSt11_Tuple_implILm1EJ14packetAnalyserEE7_M_headERS1_
	.type	_ZNSt11_Tuple_implILm1EJ14packetAnalyserEE7_M_headERS1_, @function
_ZNSt11_Tuple_implILm1EJ14packetAnalyserEE7_M_headERS1_:
.LFB9099:
	.cfi_startproc
	pushq	%rbp
	.cfi_def_cfa_offset 16
	.cfi_offset 6, -16
	movq	%rsp, %rbp
	.cfi_def_cfa_register 6
	subq	$16, %rsp
	movq	%rdi, -8(%rbp)
	movq	-8(%rbp), %rax
	movq	%rax, %rdi
	call	_ZNSt10_Head_baseILm1E14packetAnalyserLb0EE7_M_headERS1_
	leave
	.cfi_def_cfa 7, 8
	ret
	.cfi_endproc
.LFE9099:
	.size	_ZNSt11_Tuple_implILm1EJ14packetAnalyserEE7_M_headERS1_, .-_ZNSt11_Tuple_implILm1EJ14packetAnalyserEE7_M_headERS1_
	.section	.text._ZNSt10_Head_baseILm1E14packetAnalyserLb0EE7_M_headERS1_,"axG",@progbits,_ZNSt10_Head_baseILm1E14packetAnalyserLb0EE7_M_headERS1_,comdat
	.weak	_ZNSt10_Head_baseILm1E14packetAnalyserLb0EE7_M_headERS1_
	.type	_ZNSt10_Head_baseILm1E14packetAnalyserLb0EE7_M_headERS1_, @function
_ZNSt10_Head_baseILm1E14packetAnalyserLb0EE7_M_headERS1_:
.LFB9100:
	.cfi_startproc
	pushq	%rbp
	.cfi_def_cfa_offset 16
	.cfi_offset 6, -16
	movq	%rsp, %rbp
	.cfi_def_cfa_register 6
	movq	%rdi, -8(%rbp)
	movq	-8(%rbp), %rax
	popq	%rbp
	.cfi_def_cfa 7, 8
	ret
	.cfi_endproc
.LFE9100:
	.size	_ZNSt10_Head_baseILm1E14packetAnalyserLb0EE7_M_headERS1_, .-_ZNSt10_Head_baseILm1E14packetAnalyserLb0EE7_M_headERS1_
	.section	.text._ZNSt11_Tuple_implILm1EJ14packetAnalyserEEC2EOS1_,"axG",@progbits,_ZNSt11_Tuple_implILm1EJ14packetAnalyserEEC5EOS1_,comdat
	.align 2
	.weak	_ZNSt11_Tuple_implILm1EJ14packetAnalyserEEC2EOS1_
	.type	_ZNSt11_Tuple_implILm1EJ14packetAnalyserEEC2EOS1_, @function
_ZNSt11_Tuple_implILm1EJ14packetAnalyserEEC2EOS1_:
.LFB9101:
	.cfi_startproc
	pushq	%rbp
	.cfi_def_cfa_offset 16
	.cfi_offset 6, -16
	movq	%rsp, %rbp
	.cfi_def_cfa_register 6
	pushq	%rbx
	subq	$24, %rsp
	.cfi_offset 3, -24
	movq	%rdi, -24(%rbp)
	movq	%rsi, -32(%rbp)
	movq	-24(%rbp), %rbx
	movq	-32(%rbp), %rax
	movq	%rax, %rdi
	call	_ZNSt11_Tuple_implILm1EJ14packetAnalyserEE7_M_headERS1_
	movq	%rax, %rdi
	call	_ZSt7forwardI14packetAnalyserEOT_RNSt16remove_referenceIS1_E4typeE
	movq	%rax, %rsi
	movq	%rbx, %rdi
	call	_ZNSt10_Head_baseILm1E14packetAnalyserLb0EEC2IS0_EEOT_
	nop
	addq	$24, %rsp
	popq	%rbx
	popq	%rbp
	.cfi_def_cfa 7, 8
	ret
	.cfi_endproc
.LFE9101:
	.size	_ZNSt11_Tuple_implILm1EJ14packetAnalyserEEC2EOS1_, .-_ZNSt11_Tuple_implILm1EJ14packetAnalyserEEC2EOS1_
	.weak	_ZNSt11_Tuple_implILm1EJ14packetAnalyserEEC1EOS1_
	.set	_ZNSt11_Tuple_implILm1EJ14packetAnalyserEEC1EOS1_,_ZNSt11_Tuple_implILm1EJ14packetAnalyserEEC2EOS1_
	.section	.text._ZNSt5tupleIJM14packetAnalyserFvvES0_EEC2EOS3_,"axG",@progbits,_ZNSt5tupleIJM14packetAnalyserFvvES0_EEC5EOS3_,comdat
	.align 2
	.weak	_ZNSt5tupleIJM14packetAnalyserFvvES0_EEC2EOS3_
	.type	_ZNSt5tupleIJM14packetAnalyserFvvES0_EEC2EOS3_, @function
_ZNSt5tupleIJM14packetAnalyserFvvES0_EEC2EOS3_:
.LFB9104:
	.cfi_startproc
	pushq	%rbp
	.cfi_def_cfa_offset 16
	.cfi_offset 6, -16
	movq	%rsp, %rbp
	.cfi_def_cfa_register 6
	subq	$16, %rsp
	movq	%rdi, -8(%rbp)
	movq	%rsi, -16(%rbp)
	movq	-8(%rbp), %rax
	movq	-16(%rbp), %rdx
	movq	%rdx, %rsi
	movq	%rax, %rdi
	call	_ZNSt11_Tuple_implILm0EJM14packetAnalyserFvvES0_EEC2EOS3_
	nop
	leave
	.cfi_def_cfa 7, 8
	ret
	.cfi_endproc
.LFE9104:
	.size	_ZNSt5tupleIJM14packetAnalyserFvvES0_EEC2EOS3_, .-_ZNSt5tupleIJM14packetAnalyserFvvES0_EEC2EOS3_
	.weak	_ZNSt5tupleIJM14packetAnalyserFvvES0_EEC1EOS3_
	.set	_ZNSt5tupleIJM14packetAnalyserFvvES0_EEC1EOS3_,_ZNSt5tupleIJM14packetAnalyserFvvES0_EEC2EOS3_
	.section	.text._ZNSt6thread14__make_invokerIM14packetAnalyserFvvEJS1_EEENS_8_InvokerISt5tupleIJNSt5decayIT_E4typeEDpNS6_IT0_E4typeEEEEEOS7_DpOSA_,"axG",@progbits,_ZNSt6thread14__make_invokerIM14packetAnalyserFvvEJS1_EEENS_8_InvokerISt5tupleIJNSt5decayIT_E4typeEDpNS6_IT0_E4typeEEEEEOS7_DpOSA_,comdat
	.weak	_ZNSt6thread14__make_invokerIM14packetAnalyserFvvEJS1_EEENS_8_InvokerISt5tupleIJNSt5decayIT_E4typeEDpNS6_IT0_E4typeEEEEEOS7_DpOSA_
	.type	_ZNSt6thread14__make_invokerIM14packetAnalyserFvvEJS1_EEENS_8_InvokerISt5tupleIJNSt5decayIT_E4typeEDpNS6_IT0_E4typeEEEEEOS7_DpOSA_, @function
_ZNSt6thread14__make_invokerIM14packetAnalyserFvvEJS1_EEENS_8_InvokerISt5tupleIJNSt5decayIT_E4typeEDpNS6_IT0_E4typeEEEEEOS7_DpOSA_:
.LFB9081:
	.cfi_startproc
	pushq	%rbp
	.cfi_def_cfa_offset 16
	.cfi_offset 6, -16
	movq	%rsp, %rbp
	.cfi_def_cfa_register 6
	pushq	%r12
	pushq	%rbx
	subq	$32, %rsp
	.cfi_offset 12, -24
	.cfi_offset 3, -32
	movq	%rdi, -24(%rbp)
	movq	%rsi, -32(%rbp)
	movq	%rdx, -40(%rbp)
	movq	-24(%rbp), %rbx
	movq	-32(%rbp), %rax
	movq	%rax, %rdi
	call	_ZSt7forwardIM14packetAnalyserFvvEEOT_RNSt16remove_referenceIS3_E4typeE
	movq	%rax, %r12
	movq	-40(%rbp), %rax
	movq	%rax, %rdi
	call	_ZSt7forwardI14packetAnalyserEOT_RNSt16remove_referenceIS1_E4typeE
	movq	%rax, %rdx
	movq	%r12, %rsi
	movq	%rbx, %rdi
	call	_ZNSt5tupleIJM14packetAnalyserFvvES0_EEC1IS2_S0_Lb1EEEOT_OT0_
	movq	-24(%rbp), %rax
	addq	$32, %rsp
	popq	%rbx
	popq	%r12
	popq	%rbp
	.cfi_def_cfa 7, 8
	ret
	.cfi_endproc
.LFE9081:
	.size	_ZNSt6thread14__make_invokerIM14packetAnalyserFvvEJS1_EEENS_8_InvokerISt5tupleIJNSt5decayIT_E4typeEDpNS6_IT0_E4typeEEEEEOS7_DpOSA_, .-_ZNSt6thread14__make_invokerIM14packetAnalyserFvvEJS1_EEENS_8_InvokerISt5tupleIJNSt5decayIT_E4typeEDpNS6_IT0_E4typeEEEEEOS7_DpOSA_
	.section	.text._ZSt13__invoke_implIvM14packetAnalyserFvvES0_JEET_St19__invoke_memfun_refOT0_OT1_DpOT2_,"axG",@progbits,_ZSt13__invoke_implIvM14packetAnalyserFvvES0_JEET_St19__invoke_memfun_refOT0_OT1_DpOT2_,comdat
	.weak	_ZSt13__invoke_implIvM14packetAnalyserFvvES0_JEET_St19__invoke_memfun_refOT0_OT1_DpOT2_
	.type	_ZSt13__invoke_implIvM14packetAnalyserFvvES0_JEET_St19__invoke_memfun_refOT0_OT1_DpOT2_, @function
_ZSt13__invoke_implIvM14packetAnalyserFvvES0_JEET_St19__invoke_memfun_refOT0_OT1_DpOT2_:
.LFB9106:
	.cfi_startproc
	pushq	%rbp
	.cfi_def_cfa_offset 16
	.cfi_offset 6, -16
	movq	%rsp, %rbp
	.cfi_def_cfa_register 6
	subq	$16, %rsp
	movq	%rdi, -8(%rbp)
	movq	%rsi, -16(%rbp)
	movq	-16(%rbp), %rax
	movq	%rax, %rdi
	call	_ZSt8__invfwdI14packetAnalyserS0_EOT0_RNSt16remove_referenceIT_E4typeE
	movq	-8(%rbp), %rdx
	movq	8(%rdx), %rdx
	leaq	(%rax,%rdx), %rcx
	movq	-8(%rbp), %rdx
	movq	(%rdx), %rdx
	andl	$1, %edx
	testq	%rdx, %rdx
	je	.L192
	movq	-8(%rbp), %rdx
	movq	8(%rdx), %rdx
	addq	%rdx, %rax
	movq	(%rax), %rdx
	movq	-8(%rbp), %rax
	movq	(%rax), %rax
	subq	$1, %rax
	addq	%rdx, %rax
	movq	(%rax), %rax
	jmp	.L193
.L192:
	movq	-8(%rbp), %rax
	movq	(%rax), %rax
.L193:
	movq	%rcx, %rdi
	call	*%rax
	nop
	leave
	.cfi_def_cfa 7, 8
	ret
	.cfi_endproc
.LFE9106:
	.size	_ZSt13__invoke_implIvM14packetAnalyserFvvES0_JEET_St19__invoke_memfun_refOT0_OT1_DpOT2_, .-_ZSt13__invoke_implIvM14packetAnalyserFvvES0_JEET_St19__invoke_memfun_refOT0_OT1_DpOT2_
	.section	.text._ZSt7forwardINSt6thread8_InvokerISt5tupleIJM14packetAnalyserFvvES3_EEEEEOT_RNSt16remove_referenceIS8_E4typeE,"axG",@progbits,_ZSt7forwardINSt6thread8_InvokerISt5tupleIJM14packetAnalyserFvvES3_EEEEEOT_RNSt16remove_referenceIS8_E4typeE,comdat
	.weak	_ZSt7forwardINSt6thread8_InvokerISt5tupleIJM14packetAnalyserFvvES3_EEEEEOT_RNSt16remove_referenceIS8_E4typeE
	.type	_ZSt7forwardINSt6thread8_InvokerISt5tupleIJM14packetAnalyserFvvES3_EEEEEOT_RNSt16remove_referenceIS8_E4typeE, @function
_ZSt7forwardINSt6thread8_InvokerISt5tupleIJM14packetAnalyserFvvES3_EEEEEOT_RNSt16remove_referenceIS8_E4typeE:
.LFB9108:
	.cfi_startproc
	pushq	%rbp
	.cfi_def_cfa_offset 16
	.cfi_offset 6, -16
	movq	%rsp, %rbp
	.cfi_def_cfa_register 6
	movq	%rdi, -8(%rbp)
	movq	-8(%rbp), %rax
	popq	%rbp
	.cfi_def_cfa 7, 8
	ret
	.cfi_endproc
.LFE9108:
	.size	_ZSt7forwardINSt6thread8_InvokerISt5tupleIJM14packetAnalyserFvvES3_EEEEEOT_RNSt16remove_referenceIS8_E4typeE, .-_ZSt7forwardINSt6thread8_InvokerISt5tupleIJM14packetAnalyserFvvES3_EEEEEOT_RNSt16remove_referenceIS8_E4typeE
	.section	.text._ZNSt6thread13_S_make_stateINS_8_InvokerISt5tupleIJM14packetAnalyserFvvES3_EEEEEESt10unique_ptrINS_6_StateESt14default_deleteIS9_EEOT_,"axG",@progbits,_ZNSt6thread13_S_make_stateINS_8_InvokerISt5tupleIJM14packetAnalyserFvvES3_EEEEEESt10unique_ptrINS_6_StateESt14default_deleteIS9_EEOT_,comdat
	.weak	_ZNSt6thread13_S_make_stateINS_8_InvokerISt5tupleIJM14packetAnalyserFvvES3_EEEEEESt10unique_ptrINS_6_StateESt14default_deleteIS9_EEOT_
	.type	_ZNSt6thread13_S_make_stateINS_8_InvokerISt5tupleIJM14packetAnalyserFvvES3_EEEEEESt10unique_ptrINS_6_StateESt14default_deleteIS9_EEOT_, @function
_ZNSt6thread13_S_make_stateINS_8_InvokerISt5tupleIJM14packetAnalyserFvvES3_EEEEEESt10unique_ptrINS_6_StateESt14default_deleteIS9_EEOT_:
.LFB9107:
	.cfi_startproc
	pushq	%rbp
	.cfi_def_cfa_offset 16
	.cfi_offset 6, -16
	movq	%rsp, %rbp
	.cfi_def_cfa_register 6
	pushq	%r12
	pushq	%rbx
	subq	$16, %rsp
	.cfi_offset 12, -24
	.cfi_offset 3, -32
	movq	%rdi, -24(%rbp)
	movq	%rsi, -32(%rbp)
	movq	-32(%rbp), %rax
	movq	%rax, %rdi
	call	_ZSt7forwardINSt6thread8_InvokerISt5tupleIJM14packetAnalyserFvvES3_EEEEEOT_RNSt16remove_referenceIS8_E4typeE
	movq	%rax, %r12
	movl	$128, %edi
	call	_Znwm@PLT
	movq	%rax, %rbx
	movq	%r12, %rsi
	movq	%rbx, %rdi
	call	_ZNSt6thread11_State_implINS_8_InvokerISt5tupleIJM14packetAnalyserFvvES3_EEEEEC1EOS7_
	movq	-24(%rbp), %rax
	movq	%rbx, %rsi
	movq	%rax, %rdi
	call	_ZNSt10unique_ptrINSt6thread6_StateESt14default_deleteIS1_EEC1IS3_vEEPS1_
	movq	-24(%rbp), %rax
	addq	$16, %rsp
	popq	%rbx
	popq	%r12
	popq	%rbp
	.cfi_def_cfa 7, 8
	ret
	.cfi_endproc
.LFE9107:
	.size	_ZNSt6thread13_S_make_stateINS_8_InvokerISt5tupleIJM14packetAnalyserFvvES3_EEEEEESt10unique_ptrINS_6_StateESt14default_deleteIS9_EEOT_, .-_ZNSt6thread13_S_make_stateINS_8_InvokerISt5tupleIJM14packetAnalyserFvvES3_EEEEEESt10unique_ptrINS_6_StateESt14default_deleteIS9_EEOT_
	.section	.text._ZN9__gnu_cxx17__normal_iteratorIPSt6threadSt6vectorIS1_SaIS1_EEEC2ERKS2_,"axG",@progbits,_ZN9__gnu_cxx17__normal_iteratorIPSt6threadSt6vectorIS1_SaIS1_EEEC5ERKS2_,comdat
	.align 2
	.weak	_ZN9__gnu_cxx17__normal_iteratorIPSt6threadSt6vectorIS1_SaIS1_EEEC2ERKS2_
	.type	_ZN9__gnu_cxx17__normal_iteratorIPSt6threadSt6vectorIS1_SaIS1_EEEC2ERKS2_, @function
_ZN9__gnu_cxx17__normal_iteratorIPSt6threadSt6vectorIS1_SaIS1_EEEC2ERKS2_:
.LFB9110:
	.cfi_startproc
	pushq	%rbp
	.cfi_def_cfa_offset 16
	.cfi_offset 6, -16
	movq	%rsp, %rbp
	.cfi_def_cfa_register 6
	movq	%rdi, -8(%rbp)
	movq	%rsi, -16(%rbp)
	movq	-16(%rbp), %rax
	movq	(%rax), %rdx
	movq	-8(%rbp), %rax
	movq	%rdx, (%rax)
	nop
	popq	%rbp
	.cfi_def_cfa 7, 8
	ret
	.cfi_endproc
.LFE9110:
	.size	_ZN9__gnu_cxx17__normal_iteratorIPSt6threadSt6vectorIS1_SaIS1_EEEC2ERKS2_, .-_ZN9__gnu_cxx17__normal_iteratorIPSt6threadSt6vectorIS1_SaIS1_EEEC2ERKS2_
	.weak	_ZN9__gnu_cxx17__normal_iteratorIPSt6threadSt6vectorIS1_SaIS1_EEEC1ERKS2_
	.set	_ZN9__gnu_cxx17__normal_iteratorIPSt6threadSt6vectorIS1_SaIS1_EEEC1ERKS2_,_ZN9__gnu_cxx17__normal_iteratorIPSt6threadSt6vectorIS1_SaIS1_EEEC2ERKS2_
	.section	.text._ZNK9__gnu_cxx17__normal_iteratorIPSt6threadSt6vectorIS1_SaIS1_EEE4baseEv,"axG",@progbits,_ZNK9__gnu_cxx17__normal_iteratorIPSt6threadSt6vectorIS1_SaIS1_EEE4baseEv,comdat
	.align 2
	.weak	_ZNK9__gnu_cxx17__normal_iteratorIPSt6threadSt6vectorIS1_SaIS1_EEE4baseEv
	.type	_ZNK9__gnu_cxx17__normal_iteratorIPSt6threadSt6vectorIS1_SaIS1_EEE4baseEv, @function
_ZNK9__gnu_cxx17__normal_iteratorIPSt6threadSt6vectorIS1_SaIS1_EEE4baseEv:
.LFB9112:
	.cfi_startproc
	pushq	%rbp
	.cfi_def_cfa_offset 16
	.cfi_offset 6, -16
	movq	%rsp, %rbp
	.cfi_def_cfa_register 6
	movq	%rdi, -8(%rbp)
	movq	-8(%rbp), %rax
	popq	%rbp
	.cfi_def_cfa 7, 8
	ret
	.cfi_endproc
.LFE9112:
	.size	_ZNK9__gnu_cxx17__normal_iteratorIPSt6threadSt6vectorIS1_SaIS1_EEE4baseEv, .-_ZNK9__gnu_cxx17__normal_iteratorIPSt6threadSt6vectorIS1_SaIS1_EEE4baseEv
	.section	.text._ZNSt12_Vector_baseISt6threadSaIS0_EE12_Vector_implD2Ev,"axG",@progbits,_ZNSt12_Vector_baseISt6threadSaIS0_EE12_Vector_implD5Ev,comdat
	.align 2
	.weak	_ZNSt12_Vector_baseISt6threadSaIS0_EE12_Vector_implD2Ev
	.type	_ZNSt12_Vector_baseISt6threadSaIS0_EE12_Vector_implD2Ev, @function
_ZNSt12_Vector_baseISt6threadSaIS0_EE12_Vector_implD2Ev:
.LFB9115:
	.cfi_startproc
	pushq	%rbp
	.cfi_def_cfa_offset 16
	.cfi_offset 6, -16
	movq	%rsp, %rbp
	.cfi_def_cfa_register 6
	subq	$16, %rsp
	movq	%rdi, -8(%rbp)
	movq	-8(%rbp), %rax
	movq	%rax, %rdi
	call	_ZNSaISt6threadED2Ev
	nop
	leave
	.cfi_def_cfa 7, 8
	ret
	.cfi_endproc
.LFE9115:
	.size	_ZNSt12_Vector_baseISt6threadSaIS0_EE12_Vector_implD2Ev, .-_ZNSt12_Vector_baseISt6threadSaIS0_EE12_Vector_implD2Ev
	.weak	_ZNSt12_Vector_baseISt6threadSaIS0_EE12_Vector_implD1Ev
	.set	_ZNSt12_Vector_baseISt6threadSaIS0_EE12_Vector_implD1Ev,_ZNSt12_Vector_baseISt6threadSaIS0_EE12_Vector_implD2Ev
	.section	.text._ZNSt12_Vector_baseISt6threadSaIS0_EEC2Ev,"axG",@progbits,_ZNSt12_Vector_baseISt6threadSaIS0_EEC5Ev,comdat
	.align 2
	.weak	_ZNSt12_Vector_baseISt6threadSaIS0_EEC2Ev
	.type	_ZNSt12_Vector_baseISt6threadSaIS0_EEC2Ev, @function
_ZNSt12_Vector_baseISt6threadSaIS0_EEC2Ev:
.LFB9117:
	.cfi_startproc
	pushq	%rbp
	.cfi_def_cfa_offset 16
	.cfi_offset 6, -16
	movq	%rsp, %rbp
	.cfi_def_cfa_register 6
	subq	$16, %rsp
	movq	%rdi, -8(%rbp)
	movq	-8(%rbp), %rax
	movq	%rax, %rdi
	call	_ZNSt12_Vector_baseISt6threadSaIS0_EE12_Vector_implC1Ev
	nop
	leave
	.cfi_def_cfa 7, 8
	ret
	.cfi_endproc
.LFE9117:
	.size	_ZNSt12_Vector_baseISt6threadSaIS0_EEC2Ev, .-_ZNSt12_Vector_baseISt6threadSaIS0_EEC2Ev
	.weak	_ZNSt12_Vector_baseISt6threadSaIS0_EEC1Ev
	.set	_ZNSt12_Vector_baseISt6threadSaIS0_EEC1Ev,_ZNSt12_Vector_baseISt6threadSaIS0_EEC2Ev
	.section	.text._ZNSt12_Vector_baseISt6threadSaIS0_EED2Ev,"axG",@progbits,_ZNSt12_Vector_baseISt6threadSaIS0_EED5Ev,comdat
	.align 2
	.weak	_ZNSt12_Vector_baseISt6threadSaIS0_EED2Ev
	.type	_ZNSt12_Vector_baseISt6threadSaIS0_EED2Ev, @function
_ZNSt12_Vector_baseISt6threadSaIS0_EED2Ev:
.LFB9120:
	.cfi_startproc
	.cfi_personality 0x9b,DW.ref.__gxx_personality_v0
	.cfi_lsda 0x1b,.LLSDA9120
	pushq	%rbp
	.cfi_def_cfa_offset 16
	.cfi_offset 6, -16
	movq	%rsp, %rbp
	.cfi_def_cfa_register 6
	subq	$16, %rsp
	movq	%rdi, -8(%rbp)
	movq	-8(%rbp), %rax
	movq	16(%rax), %rax
	movq	%rax, %rdx
	movq	-8(%rbp), %rax
	movq	(%rax), %rax
	subq	%rax, %rdx
	movq	%rdx, %rax
	sarq	$3, %rax
	movq	%rax, %rdx
	movq	-8(%rbp), %rax
	movq	(%rax), %rcx
	movq	-8(%rbp), %rax
	movq	%rcx, %rsi
	movq	%rax, %rdi
	call	_ZNSt12_Vector_baseISt6threadSaIS0_EE13_M_deallocateEPS0_m
	movq	-8(%rbp), %rax
	movq	%rax, %rdi
	call	_ZNSt12_Vector_baseISt6threadSaIS0_EE12_Vector_implD1Ev
	nop
	leave
	.cfi_def_cfa 7, 8
	ret
	.cfi_endproc
.LFE9120:
	.section	.gcc_except_table
.LLSDA9120:
	.byte	0xff
	.byte	0xff
	.byte	0x1
	.uleb128 .LLSDACSE9120-.LLSDACSB9120
.LLSDACSB9120:
.LLSDACSE9120:
	.section	.text._ZNSt12_Vector_baseISt6threadSaIS0_EED2Ev,"axG",@progbits,_ZNSt12_Vector_baseISt6threadSaIS0_EED5Ev,comdat
	.size	_ZNSt12_Vector_baseISt6threadSaIS0_EED2Ev, .-_ZNSt12_Vector_baseISt6threadSaIS0_EED2Ev
	.weak	_ZNSt12_Vector_baseISt6threadSaIS0_EED1Ev
	.set	_ZNSt12_Vector_baseISt6threadSaIS0_EED1Ev,_ZNSt12_Vector_baseISt6threadSaIS0_EED2Ev
	.section	.text._ZNSt12_Vector_baseISt6threadSaIS0_EE19_M_get_Tp_allocatorEv,"axG",@progbits,_ZNSt12_Vector_baseISt6threadSaIS0_EE19_M_get_Tp_allocatorEv,comdat
	.align 2
	.weak	_ZNSt12_Vector_baseISt6threadSaIS0_EE19_M_get_Tp_allocatorEv
	.type	_ZNSt12_Vector_baseISt6threadSaIS0_EE19_M_get_Tp_allocatorEv, @function
_ZNSt12_Vector_baseISt6threadSaIS0_EE19_M_get_Tp_allocatorEv:
.LFB9122:
	.cfi_startproc
	pushq	%rbp
	.cfi_def_cfa_offset 16
	.cfi_offset 6, -16
	movq	%rsp, %rbp
	.cfi_def_cfa_register 6
	movq	%rdi, -8(%rbp)
	movq	-8(%rbp), %rax
	popq	%rbp
	.cfi_def_cfa 7, 8
	ret
	.cfi_endproc
.LFE9122:
	.size	_ZNSt12_Vector_baseISt6threadSaIS0_EE19_M_get_Tp_allocatorEv, .-_ZNSt12_Vector_baseISt6threadSaIS0_EE19_M_get_Tp_allocatorEv
	.section	.text._ZSt8_DestroyIPSt6threadS0_EvT_S2_RSaIT0_E,"axG",@progbits,_ZSt8_DestroyIPSt6threadS0_EvT_S2_RSaIT0_E,comdat
	.weak	_ZSt8_DestroyIPSt6threadS0_EvT_S2_RSaIT0_E
	.type	_ZSt8_DestroyIPSt6threadS0_EvT_S2_RSaIT0_E, @function
_ZSt8_DestroyIPSt6threadS0_EvT_S2_RSaIT0_E:
.LFB9123:
	.cfi_startproc
	pushq	%rbp
	.cfi_def_cfa_offset 16
	.cfi_offset 6, -16
	movq	%rsp, %rbp
	.cfi_def_cfa_register 6
	subq	$32, %rsp
	movq	%rdi, -8(%rbp)
	movq	%rsi, -16(%rbp)
	movq	%rdx, -24(%rbp)
	movq	-16(%rbp), %rdx
	movq	-8(%rbp), %rax
	movq	%rdx, %rsi
	movq	%rax, %rdi
	call	_ZSt8_DestroyIPSt6threadEvT_S2_
	nop
	leave
	.cfi_def_cfa 7, 8
	ret
	.cfi_endproc
.LFE9123:
	.size	_ZSt8_DestroyIPSt6threadS0_EvT_S2_RSaIT0_E, .-_ZSt8_DestroyIPSt6threadS0_EvT_S2_RSaIT0_E
	.section	.text._ZNSt10_Head_baseILm0EM10echoServerFvvELb0EEC2IS2_EEOT_,"axG",@progbits,_ZNSt10_Head_baseILm0EM10echoServerFvvELb0EEC5IS2_EEOT_,comdat
	.align 2
	.weak	_ZNSt10_Head_baseILm0EM10echoServerFvvELb0EEC2IS2_EEOT_
	.type	_ZNSt10_Head_baseILm0EM10echoServerFvvELb0EEC2IS2_EEOT_, @function
_ZNSt10_Head_baseILm0EM10echoServerFvvELb0EEC2IS2_EEOT_:
.LFB9272:
	.cfi_startproc
	pushq	%rbp
	.cfi_def_cfa_offset 16
	.cfi_offset 6, -16
	movq	%rsp, %rbp
	.cfi_def_cfa_register 6
	subq	$16, %rsp
	movq	%rdi, -8(%rbp)
	movq	%rsi, -16(%rbp)
	movq	-16(%rbp), %rax
	movq	%rax, %rdi
	call	_ZSt7forwardIM10echoServerFvvEEOT_RNSt16remove_referenceIS3_E4typeE
	movq	-8(%rbp), %rcx
	movq	8(%rax), %rdx
	movq	(%rax), %rax
	movq	%rax, (%rcx)
	movq	%rdx, 8(%rcx)
	nop
	leave
	.cfi_def_cfa 7, 8
	ret
	.cfi_endproc
.LFE9272:
	.size	_ZNSt10_Head_baseILm0EM10echoServerFvvELb0EEC2IS2_EEOT_, .-_ZNSt10_Head_baseILm0EM10echoServerFvvELb0EEC2IS2_EEOT_
	.weak	_ZNSt10_Head_baseILm0EM10echoServerFvvELb0EEC1IS2_EEOT_
	.set	_ZNSt10_Head_baseILm0EM10echoServerFvvELb0EEC1IS2_EEOT_,_ZNSt10_Head_baseILm0EM10echoServerFvvELb0EEC2IS2_EEOT_
	.section	.text._ZNSt11_Tuple_implILm0EJM10echoServerFvvES0_EE7_M_tailERS3_,"axG",@progbits,_ZNSt11_Tuple_implILm0EJM10echoServerFvvES0_EE7_M_tailERS3_,comdat
	.weak	_ZNSt11_Tuple_implILm0EJM10echoServerFvvES0_EE7_M_tailERS3_
	.type	_ZNSt11_Tuple_implILm0EJM10echoServerFvvES0_EE7_M_tailERS3_, @function
_ZNSt11_Tuple_implILm0EJM10echoServerFvvES0_EE7_M_tailERS3_:
.LFB9275:
	.cfi_startproc
	pushq	%rbp
	.cfi_def_cfa_offset 16
	.cfi_offset 6, -16
	movq	%rsp, %rbp
	.cfi_def_cfa_register 6
	movq	%rdi, -8(%rbp)
	movq	-8(%rbp), %rax
	popq	%rbp
	.cfi_def_cfa 7, 8
	ret
	.cfi_endproc
.LFE9275:
	.size	_ZNSt11_Tuple_implILm0EJM10echoServerFvvES0_EE7_M_tailERS3_, .-_ZNSt11_Tuple_implILm0EJM10echoServerFvvES0_EE7_M_tailERS3_
	.section	.text._ZNSt11_Tuple_implILm0EJM10echoServerFvvES0_EE7_M_headERS3_,"axG",@progbits,_ZNSt11_Tuple_implILm0EJM10echoServerFvvES0_EE7_M_headERS3_,comdat
	.weak	_ZNSt11_Tuple_implILm0EJM10echoServerFvvES0_EE7_M_headERS3_
	.type	_ZNSt11_Tuple_implILm0EJM10echoServerFvvES0_EE7_M_headERS3_, @function
_ZNSt11_Tuple_implILm0EJM10echoServerFvvES0_EE7_M_headERS3_:
.LFB9276:
	.cfi_startproc
	pushq	%rbp
	.cfi_def_cfa_offset 16
	.cfi_offset 6, -16
	movq	%rsp, %rbp
	.cfi_def_cfa_register 6
	subq	$16, %rsp
	movq	%rdi, -8(%rbp)
	movq	-8(%rbp), %rax
	subq	$-128, %rax
	movq	%rax, %rdi
	call	_ZNSt10_Head_baseILm0EM10echoServerFvvELb0EE7_M_headERS3_
	leave
	.cfi_def_cfa 7, 8
	ret
	.cfi_endproc
.LFE9276:
	.size	_ZNSt11_Tuple_implILm0EJM10echoServerFvvES0_EE7_M_headERS3_, .-_ZNSt11_Tuple_implILm0EJM10echoServerFvvES0_EE7_M_headERS3_
	.section	.text._ZNSt10_Head_baseILm0EM10echoServerFvvELb0EE7_M_headERS3_,"axG",@progbits,_ZNSt10_Head_baseILm0EM10echoServerFvvELb0EE7_M_headERS3_,comdat
	.weak	_ZNSt10_Head_baseILm0EM10echoServerFvvELb0EE7_M_headERS3_
	.type	_ZNSt10_Head_baseILm0EM10echoServerFvvELb0EE7_M_headERS3_, @function
_ZNSt10_Head_baseILm0EM10echoServerFvvELb0EE7_M_headERS3_:
.LFB9277:
	.cfi_startproc
	pushq	%rbp
	.cfi_def_cfa_offset 16
	.cfi_offset 6, -16
	movq	%rsp, %rbp
	.cfi_def_cfa_register 6
	movq	%rdi, -8(%rbp)
	movq	-8(%rbp), %rax
	popq	%rbp
	.cfi_def_cfa 7, 8
	ret
	.cfi_endproc
.LFE9277:
	.size	_ZNSt10_Head_baseILm0EM10echoServerFvvELb0EE7_M_headERS3_, .-_ZNSt10_Head_baseILm0EM10echoServerFvvELb0EE7_M_headERS3_
	.section	.text._ZSt4moveIRSt11_Tuple_implILm1EJ10echoServerEEEONSt16remove_referenceIT_E4typeEOS5_,"axG",@progbits,_ZSt4moveIRSt11_Tuple_implILm1EJ10echoServerEEEONSt16remove_referenceIT_E4typeEOS5_,comdat
	.weak	_ZSt4moveIRSt11_Tuple_implILm1EJ10echoServerEEEONSt16remove_referenceIT_E4typeEOS5_
	.type	_ZSt4moveIRSt11_Tuple_implILm1EJ10echoServerEEEONSt16remove_referenceIT_E4typeEOS5_, @function
_ZSt4moveIRSt11_Tuple_implILm1EJ10echoServerEEEONSt16remove_referenceIT_E4typeEOS5_:
.LFB9278:
	.cfi_startproc
	pushq	%rbp
	.cfi_def_cfa_offset 16
	.cfi_offset 6, -16
	movq	%rsp, %rbp
	.cfi_def_cfa_register 6
	movq	%rdi, -8(%rbp)
	movq	-8(%rbp), %rax
	popq	%rbp
	.cfi_def_cfa 7, 8
	ret
	.cfi_endproc
.LFE9278:
	.size	_ZSt4moveIRSt11_Tuple_implILm1EJ10echoServerEEEONSt16remove_referenceIT_E4typeEOS5_, .-_ZSt4moveIRSt11_Tuple_implILm1EJ10echoServerEEEONSt16remove_referenceIT_E4typeEOS5_
	.section	.text._ZNSt11_Tuple_implILm0EJM10echoServerFvvES0_EEC2EOS3_,"axG",@progbits,_ZNSt11_Tuple_implILm0EJM10echoServerFvvES0_EEC5EOS3_,comdat
	.align 2
	.weak	_ZNSt11_Tuple_implILm0EJM10echoServerFvvES0_EEC2EOS3_
	.type	_ZNSt11_Tuple_implILm0EJM10echoServerFvvES0_EEC2EOS3_, @function
_ZNSt11_Tuple_implILm0EJM10echoServerFvvES0_EEC2EOS3_:
.LFB9279:
	.cfi_startproc
	pushq	%rbp
	.cfi_def_cfa_offset 16
	.cfi_offset 6, -16
	movq	%rsp, %rbp
	.cfi_def_cfa_register 6
	pushq	%rbx
	subq	$24, %rsp
	.cfi_offset 3, -24
	movq	%rdi, -24(%rbp)
	movq	%rsi, -32(%rbp)
	movq	-24(%rbp), %rbx
	movq	-32(%rbp), %rax
	movq	%rax, %rdi
	call	_ZNSt11_Tuple_implILm0EJM10echoServerFvvES0_EE7_M_tailERS3_
	movq	%rax, %rdi
	call	_ZSt4moveIRSt11_Tuple_implILm1EJ10echoServerEEEONSt16remove_referenceIT_E4typeEOS5_
	movq	%rax, %rsi
	movq	%rbx, %rdi
	call	_ZNSt11_Tuple_implILm1EJ10echoServerEEC2EOS1_
	movq	-24(%rbp), %rax
	leaq	128(%rax), %rbx
	movq	-32(%rbp), %rax
	movq	%rax, %rdi
	call	_ZNSt11_Tuple_implILm0EJM10echoServerFvvES0_EE7_M_headERS3_
	movq	%rax, %rdi
	call	_ZSt7forwardIM10echoServerFvvEEOT_RNSt16remove_referenceIS3_E4typeE
	movq	%rax, %rsi
	movq	%rbx, %rdi
	call	_ZNSt10_Head_baseILm0EM10echoServerFvvELb0EEC2IS2_EEOT_
	nop
	addq	$24, %rsp
	popq	%rbx
	popq	%rbp
	.cfi_def_cfa 7, 8
	ret
	.cfi_endproc
.LFE9279:
	.size	_ZNSt11_Tuple_implILm0EJM10echoServerFvvES0_EEC2EOS3_, .-_ZNSt11_Tuple_implILm0EJM10echoServerFvvES0_EEC2EOS3_
	.weak	_ZNSt11_Tuple_implILm0EJM10echoServerFvvES0_EEC1EOS3_
	.set	_ZNSt11_Tuple_implILm0EJM10echoServerFvvES0_EEC1EOS3_,_ZNSt11_Tuple_implILm0EJM10echoServerFvvES0_EEC2EOS3_
	.section	.text._ZSt8__invfwdI10echoServerS0_EOT0_RNSt16remove_referenceIT_E4typeE,"axG",@progbits,_ZSt8__invfwdI10echoServerS0_EOT0_RNSt16remove_referenceIT_E4typeE,comdat
	.weak	_ZSt8__invfwdI10echoServerS0_EOT0_RNSt16remove_referenceIT_E4typeE
	.type	_ZSt8__invfwdI10echoServerS0_EOT0_RNSt16remove_referenceIT_E4typeE, @function
_ZSt8__invfwdI10echoServerS0_EOT0_RNSt16remove_referenceIT_E4typeE:
.LFB9281:
	.cfi_startproc
	pushq	%rbp
	.cfi_def_cfa_offset 16
	.cfi_offset 6, -16
	movq	%rsp, %rbp
	.cfi_def_cfa_register 6
	movq	%rdi, -8(%rbp)
	movq	-8(%rbp), %rax
	popq	%rbp
	.cfi_def_cfa 7, 8
	ret
	.cfi_endproc
.LFE9281:
	.size	_ZSt8__invfwdI10echoServerS0_EOT0_RNSt16remove_referenceIT_E4typeE, .-_ZSt8__invfwdI10echoServerS0_EOT0_RNSt16remove_referenceIT_E4typeE
	.section	.text._ZNSt6thread6_StateC2Ev,"axG",@progbits,_ZNSt6thread6_StateC5Ev,comdat
	.align 2
	.weak	_ZNSt6thread6_StateC2Ev
	.type	_ZNSt6thread6_StateC2Ev, @function
_ZNSt6thread6_StateC2Ev:
.LFB9284:
	.cfi_startproc
	pushq	%rbp
	.cfi_def_cfa_offset 16
	.cfi_offset 6, -16
	movq	%rsp, %rbp
	.cfi_def_cfa_register 6
	movq	%rdi, -8(%rbp)
	leaq	16+_ZTVNSt6thread6_StateE(%rip), %rdx
	movq	-8(%rbp), %rax
	movq	%rdx, (%rax)
	nop
	popq	%rbp
	.cfi_def_cfa 7, 8
	ret
	.cfi_endproc
.LFE9284:
	.size	_ZNSt6thread6_StateC2Ev, .-_ZNSt6thread6_StateC2Ev
	.weak	_ZNSt6thread6_StateC1Ev
	.set	_ZNSt6thread6_StateC1Ev,_ZNSt6thread6_StateC2Ev
	.section	.text._ZNSt6thread8_InvokerISt5tupleIJM10echoServerFvvES2_EEEC2EOS6_,"axG",@progbits,_ZNSt6thread8_InvokerISt5tupleIJM10echoServerFvvES2_EEEC5EOS6_,comdat
	.align 2
	.weak	_ZNSt6thread8_InvokerISt5tupleIJM10echoServerFvvES2_EEEC2EOS6_
	.type	_ZNSt6thread8_InvokerISt5tupleIJM10echoServerFvvES2_EEEC2EOS6_, @function
_ZNSt6thread8_InvokerISt5tupleIJM10echoServerFvvES2_EEEC2EOS6_:
.LFB9287:
	.cfi_startproc
	pushq	%rbp
	.cfi_def_cfa_offset 16
	.cfi_offset 6, -16
	movq	%rsp, %rbp
	.cfi_def_cfa_register 6
	subq	$16, %rsp
	movq	%rdi, -8(%rbp)
	movq	%rsi, -16(%rbp)
	movq	-8(%rbp), %rax
	movq	-16(%rbp), %rdx
	movq	%rdx, %rsi
	movq	%rax, %rdi
	call	_ZNSt5tupleIJM10echoServerFvvES0_EEC1EOS3_
	nop
	leave
	.cfi_def_cfa 7, 8
	ret
	.cfi_endproc
.LFE9287:
	.size	_ZNSt6thread8_InvokerISt5tupleIJM10echoServerFvvES2_EEEC2EOS6_, .-_ZNSt6thread8_InvokerISt5tupleIJM10echoServerFvvES2_EEEC2EOS6_
	.weak	_ZNSt6thread8_InvokerISt5tupleIJM10echoServerFvvES2_EEEC1EOS6_
	.set	_ZNSt6thread8_InvokerISt5tupleIJM10echoServerFvvES2_EEEC1EOS6_,_ZNSt6thread8_InvokerISt5tupleIJM10echoServerFvvES2_EEEC2EOS6_
	.section	.text._ZNSt6thread11_State_implINS_8_InvokerISt5tupleIJM10echoServerFvvES3_EEEEEC2EOS7_,"axG",@progbits,_ZNSt6thread11_State_implINS_8_InvokerISt5tupleIJM10echoServerFvvES3_EEEEEC5EOS7_,comdat
	.align 2
	.weak	_ZNSt6thread11_State_implINS_8_InvokerISt5tupleIJM10echoServerFvvES3_EEEEEC2EOS7_
	.type	_ZNSt6thread11_State_implINS_8_InvokerISt5tupleIJM10echoServerFvvES3_EEEEEC2EOS7_, @function
_ZNSt6thread11_State_implINS_8_InvokerISt5tupleIJM10echoServerFvvES3_EEEEEC2EOS7_:
.LFB9289:
	.cfi_startproc
	pushq	%rbp
	.cfi_def_cfa_offset 16
	.cfi_offset 6, -16
	movq	%rsp, %rbp
	.cfi_def_cfa_register 6
	pushq	%rbx
	subq	$24, %rsp
	.cfi_offset 3, -24
	movq	%rdi, -24(%rbp)
	movq	%rsi, -32(%rbp)
	movq	-24(%rbp), %rax
	movq	%rax, %rdi
	call	_ZNSt6thread6_StateC2Ev
	leaq	16+_ZTVNSt6thread11_State_implINS_8_InvokerISt5tupleIJM10echoServerFvvES3_EEEEEE(%rip), %rdx
	movq	-24(%rbp), %rax
	movq	%rdx, (%rax)
	movq	-24(%rbp), %rax
	leaq	8(%rax), %rbx
	movq	-32(%rbp), %rax
	movq	%rax, %rdi
	call	_ZSt7forwardINSt6thread8_InvokerISt5tupleIJM10echoServerFvvES3_EEEEEOT_RNSt16remove_referenceIS8_E4typeE
	movq	%rax, %rsi
	movq	%rbx, %rdi
	call	_ZNSt6thread8_InvokerISt5tupleIJM10echoServerFvvES2_EEEC1EOS6_
	nop
	addq	$24, %rsp
	popq	%rbx
	popq	%rbp
	.cfi_def_cfa 7, 8
	ret
	.cfi_endproc
.LFE9289:
	.size	_ZNSt6thread11_State_implINS_8_InvokerISt5tupleIJM10echoServerFvvES3_EEEEEC2EOS7_, .-_ZNSt6thread11_State_implINS_8_InvokerISt5tupleIJM10echoServerFvvES3_EEEEEC2EOS7_
	.weak	_ZNSt6thread11_State_implINS_8_InvokerISt5tupleIJM10echoServerFvvES3_EEEEEC1EOS7_
	.set	_ZNSt6thread11_State_implINS_8_InvokerISt5tupleIJM10echoServerFvvES3_EEEEEC1EOS7_,_ZNSt6thread11_State_implINS_8_InvokerISt5tupleIJM10echoServerFvvES3_EEEEEC2EOS7_
	.section	.text._ZNSt10unique_ptrINSt6thread6_StateESt14default_deleteIS1_EEC2IS3_vEEPS1_,"axG",@progbits,_ZNSt10unique_ptrINSt6thread6_StateESt14default_deleteIS1_EEC5IS3_vEEPS1_,comdat
	.align 2
	.weak	_ZNSt10unique_ptrINSt6thread6_StateESt14default_deleteIS1_EEC2IS3_vEEPS1_
	.type	_ZNSt10unique_ptrINSt6thread6_StateESt14default_deleteIS1_EEC2IS3_vEEPS1_, @function
_ZNSt10unique_ptrINSt6thread6_StateESt14default_deleteIS1_EEC2IS3_vEEPS1_:
.LFB9292:
	.cfi_startproc
	.cfi_personality 0x9b,DW.ref.__gxx_personality_v0
	.cfi_lsda 0x1b,.LLSDA9292
	pushq	%rbp
	.cfi_def_cfa_offset 16
	.cfi_offset 6, -16
	movq	%rsp, %rbp
	.cfi_def_cfa_register 6
	subq	$16, %rsp
	movq	%rdi, -8(%rbp)
	movq	%rsi, -16(%rbp)
	movq	-8(%rbp), %rax
	movq	-16(%rbp), %rdx
	movq	%rdx, %rsi
	movq	%rax, %rdi
	call	_ZNSt15__uniq_ptr_implINSt6thread6_StateESt14default_deleteIS1_EEC1EPS1_
	nop
	leave
	.cfi_def_cfa 7, 8
	ret
	.cfi_endproc
.LFE9292:
	.section	.gcc_except_table
.LLSDA9292:
	.byte	0xff
	.byte	0xff
	.byte	0x1
	.uleb128 .LLSDACSE9292-.LLSDACSB9292
.LLSDACSB9292:
.LLSDACSE9292:
	.section	.text._ZNSt10unique_ptrINSt6thread6_StateESt14default_deleteIS1_EEC2IS3_vEEPS1_,"axG",@progbits,_ZNSt10unique_ptrINSt6thread6_StateESt14default_deleteIS1_EEC5IS3_vEEPS1_,comdat
	.size	_ZNSt10unique_ptrINSt6thread6_StateESt14default_deleteIS1_EEC2IS3_vEEPS1_, .-_ZNSt10unique_ptrINSt6thread6_StateESt14default_deleteIS1_EEC2IS3_vEEPS1_
	.weak	_ZNSt10unique_ptrINSt6thread6_StateESt14default_deleteIS1_EEC1IS3_vEEPS1_
	.set	_ZNSt10unique_ptrINSt6thread6_StateESt14default_deleteIS1_EEC1IS3_vEEPS1_,_ZNSt10unique_ptrINSt6thread6_StateESt14default_deleteIS1_EEC2IS3_vEEPS1_
	.section	.text._ZNSt15__uniq_ptr_implINSt6thread6_StateESt14default_deleteIS1_EE6_M_ptrEv,"axG",@progbits,_ZNSt15__uniq_ptr_implINSt6thread6_StateESt14default_deleteIS1_EE6_M_ptrEv,comdat
	.align 2
	.weak	_ZNSt15__uniq_ptr_implINSt6thread6_StateESt14default_deleteIS1_EE6_M_ptrEv
	.type	_ZNSt15__uniq_ptr_implINSt6thread6_StateESt14default_deleteIS1_EE6_M_ptrEv, @function
_ZNSt15__uniq_ptr_implINSt6thread6_StateESt14default_deleteIS1_EE6_M_ptrEv:
.LFB9294:
	.cfi_startproc
	pushq	%rbp
	.cfi_def_cfa_offset 16
	.cfi_offset 6, -16
	movq	%rsp, %rbp
	.cfi_def_cfa_register 6
	subq	$16, %rsp
	movq	%rdi, -8(%rbp)
	movq	-8(%rbp), %rax
	movq	%rax, %rdi
	call	_ZSt3getILm0EJPNSt6thread6_StateESt14default_deleteIS1_EEERNSt13tuple_elementIXT_ESt5tupleIJDpT0_EEE4typeERS9_
	leave
	.cfi_def_cfa 7, 8
	ret
	.cfi_endproc
.LFE9294:
	.size	_ZNSt15__uniq_ptr_implINSt6thread6_StateESt14default_deleteIS1_EE6_M_ptrEv, .-_ZNSt15__uniq_ptr_implINSt6thread6_StateESt14default_deleteIS1_EE6_M_ptrEv
	.section	.text._ZNSt10unique_ptrINSt6thread6_StateESt14default_deleteIS1_EE11get_deleterEv,"axG",@progbits,_ZNSt10unique_ptrINSt6thread6_StateESt14default_deleteIS1_EE11get_deleterEv,comdat
	.align 2
	.weak	_ZNSt10unique_ptrINSt6thread6_StateESt14default_deleteIS1_EE11get_deleterEv
	.type	_ZNSt10unique_ptrINSt6thread6_StateESt14default_deleteIS1_EE11get_deleterEv, @function
_ZNSt10unique_ptrINSt6thread6_StateESt14default_deleteIS1_EE11get_deleterEv:
.LFB9295:
	.cfi_startproc
	pushq	%rbp
	.cfi_def_cfa_offset 16
	.cfi_offset 6, -16
	movq	%rsp, %rbp
	.cfi_def_cfa_register 6
	subq	$16, %rsp
	movq	%rdi, -8(%rbp)
	movq	-8(%rbp), %rax
	movq	%rax, %rdi
	call	_ZNSt15__uniq_ptr_implINSt6thread6_StateESt14default_deleteIS1_EE10_M_deleterEv
	leave
	.cfi_def_cfa 7, 8
	ret
	.cfi_endproc
.LFE9295:
	.size	_ZNSt10unique_ptrINSt6thread6_StateESt14default_deleteIS1_EE11get_deleterEv, .-_ZNSt10unique_ptrINSt6thread6_StateESt14default_deleteIS1_EE11get_deleterEv
	.section	.text._ZNKSt14default_deleteINSt6thread6_StateEEclEPS1_,"axG",@progbits,_ZNKSt14default_deleteINSt6thread6_StateEEclEPS1_,comdat
	.align 2
	.weak	_ZNKSt14default_deleteINSt6thread6_StateEEclEPS1_
	.type	_ZNKSt14default_deleteINSt6thread6_StateEEclEPS1_, @function
_ZNKSt14default_deleteINSt6thread6_StateEEclEPS1_:
.LFB9296:
	.cfi_startproc
	pushq	%rbp
	.cfi_def_cfa_offset 16
	.cfi_offset 6, -16
	movq	%rsp, %rbp
	.cfi_def_cfa_register 6
	subq	$16, %rsp
	movq	%rdi, -8(%rbp)
	movq	%rsi, -16(%rbp)
	cmpq	$0, -16(%rbp)
	je	.L230
	movq	-16(%rbp), %rax
	movq	(%rax), %rax
	addq	$8, %rax
	movq	(%rax), %rax
	movq	-16(%rbp), %rdx
	movq	%rdx, %rdi
	call	*%rax
.L230:
	nop
	leave
	.cfi_def_cfa 7, 8
	ret
	.cfi_endproc
.LFE9296:
	.size	_ZNKSt14default_deleteINSt6thread6_StateEEclEPS1_, .-_ZNKSt14default_deleteINSt6thread6_StateEEclEPS1_
	.section	.text._ZNSt16allocator_traitsISaISt6threadEE9constructIS0_JS0_EEEvRS1_PT_DpOT0_,"axG",@progbits,_ZNSt16allocator_traitsISaISt6threadEE9constructIS0_JS0_EEEvRS1_PT_DpOT0_,comdat
	.weak	_ZNSt16allocator_traitsISaISt6threadEE9constructIS0_JS0_EEEvRS1_PT_DpOT0_
	.type	_ZNSt16allocator_traitsISaISt6threadEE9constructIS0_JS0_EEEvRS1_PT_DpOT0_, @function
_ZNSt16allocator_traitsISaISt6threadEE9constructIS0_JS0_EEEvRS1_PT_DpOT0_:
.LFB9304:
	.cfi_startproc
	pushq	%rbp
	.cfi_def_cfa_offset 16
	.cfi_offset 6, -16
	movq	%rsp, %rbp
	.cfi_def_cfa_register 6
	subq	$32, %rsp
	movq	%rdi, -8(%rbp)
	movq	%rsi, -16(%rbp)
	movq	%rdx, -24(%rbp)
	movq	-24(%rbp), %rax
	movq	%rax, %rdi
	call	_ZSt7forwardISt6threadEOT_RNSt16remove_referenceIS1_E4typeE
	movq	%rax, %rdx
	movq	-16(%rbp), %rcx
	movq	-8(%rbp), %rax
	movq	%rcx, %rsi
	movq	%rax, %rdi
	call	_ZN9__gnu_cxx13new_allocatorISt6threadE9constructIS1_JS1_EEEvPT_DpOT0_
	nop
	leave
	.cfi_def_cfa 7, 8
	ret
	.cfi_endproc
.LFE9304:
	.size	_ZNSt16allocator_traitsISaISt6threadEE9constructIS0_JS0_EEEvRS1_PT_DpOT0_, .-_ZNSt16allocator_traitsISaISt6threadEE9constructIS0_JS0_EEEvRS1_PT_DpOT0_
	.section	.rodata
.LC71:
	.string	"vector::_M_realloc_insert"
	.section	.text._ZNSt6vectorISt6threadSaIS0_EE17_M_realloc_insertIJS0_EEEvN9__gnu_cxx17__normal_iteratorIPS0_S2_EEDpOT_,"axG",@progbits,_ZNSt6vectorISt6threadSaIS0_EE17_M_realloc_insertIJS0_EEEvN9__gnu_cxx17__normal_iteratorIPS0_S2_EEDpOT_,comdat
	.align 2
	.weak	_ZNSt6vectorISt6threadSaIS0_EE17_M_realloc_insertIJS0_EEEvN9__gnu_cxx17__normal_iteratorIPS0_S2_EEDpOT_
	.type	_ZNSt6vectorISt6threadSaIS0_EE17_M_realloc_insertIJS0_EEEvN9__gnu_cxx17__normal_iteratorIPS0_S2_EEDpOT_, @function
_ZNSt6vectorISt6threadSaIS0_EE17_M_realloc_insertIJS0_EEEvN9__gnu_cxx17__normal_iteratorIPS0_S2_EEDpOT_:
.LFB9305:
	.cfi_startproc
	.cfi_personality 0x9b,DW.ref.__gxx_personality_v0
	.cfi_lsda 0x1b,.LLSDA9305
	pushq	%rbp
	.cfi_def_cfa_offset 16
	.cfi_offset 6, -16
	movq	%rsp, %rbp
	.cfi_def_cfa_register 6
	pushq	%r12
	pushq	%rbx
	subq	$80, %rsp
	.cfi_offset 12, -24
	.cfi_offset 3, -32
	movq	%rdi, -72(%rbp)
	movq	%rsi, -80(%rbp)
	movq	%rdx, -88(%rbp)
	movq	%fs:40, %rax
	movq	%rax, -24(%rbp)
	xorl	%eax, %eax
	movq	-72(%rbp), %rax
	leaq	.LC71(%rip), %rdx
	movl	$1, %esi
	movq	%rax, %rdi
.LEHB17:
	call	_ZNKSt6vectorISt6threadSaIS0_EE12_M_check_lenEmPKc
	movq	%rax, -48(%rbp)
	movq	-72(%rbp), %rax
	movq	%rax, %rdi
	call	_ZNSt6vectorISt6threadSaIS0_EE5beginEv
	movq	%rax, -64(%rbp)
	leaq	-64(%rbp), %rdx
	leaq	-80(%rbp), %rax
	movq	%rdx, %rsi
	movq	%rax, %rdi
	call	_ZN9__gnu_cxxmiIPSt6threadSt6vectorIS1_SaIS1_EEEENS_17__normal_iteratorIT_T0_E15difference_typeERKS9_SC_
	movq	%rax, -40(%rbp)
	movq	-72(%rbp), %rax
	movq	-48(%rbp), %rdx
	movq	%rdx, %rsi
	movq	%rax, %rdi
	call	_ZNSt12_Vector_baseISt6threadSaIS0_EE11_M_allocateEm
.LEHE17:
	movq	%rax, -32(%rbp)
	movq	-32(%rbp), %rax
	movq	%rax, -56(%rbp)
	movq	-88(%rbp), %rax
	movq	%rax, %rdi
	call	_ZSt7forwardISt6threadEOT_RNSt16remove_referenceIS1_E4typeE
	movq	%rax, %rsi
	movq	-40(%rbp), %rax
	leaq	0(,%rax,8), %rdx
	movq	-32(%rbp), %rax
	leaq	(%rdx,%rax), %rcx
	movq	-72(%rbp), %rax
	movq	%rsi, %rdx
	movq	%rcx, %rsi
	movq	%rax, %rdi
	call	_ZNSt16allocator_traitsISaISt6threadEE9constructIS0_JS0_EEEvRS1_PT_DpOT0_
	movq	$0, -56(%rbp)
	movq	-72(%rbp), %rax
	movq	%rax, %rdi
	call	_ZNSt12_Vector_baseISt6threadSaIS0_EE19_M_get_Tp_allocatorEv
	movq	%rax, %rbx
	leaq	-80(%rbp), %rax
	movq	%rax, %rdi
	call	_ZNK9__gnu_cxx17__normal_iteratorIPSt6threadSt6vectorIS1_SaIS1_EEE4baseEv
	movq	(%rax), %rsi
	movq	-72(%rbp), %rax
	movq	(%rax), %rax
	movq	-32(%rbp), %rdx
	movq	%rbx, %rcx
	movq	%rax, %rdi
.LEHB18:
	call	_ZSt34__uninitialized_move_if_noexcept_aIPSt6threadS1_SaIS0_EET0_T_S4_S3_RT1_
	movq	%rax, -56(%rbp)
	addq	$8, -56(%rbp)
	movq	-72(%rbp), %rax
	movq	%rax, %rdi
	call	_ZNSt12_Vector_baseISt6threadSaIS0_EE19_M_get_Tp_allocatorEv
	movq	%rax, %r12
	movq	-72(%rbp), %rax
	movq	8(%rax), %rbx
	leaq	-80(%rbp), %rax
	movq	%rax, %rdi
	call	_ZNK9__gnu_cxx17__normal_iteratorIPSt6threadSt6vectorIS1_SaIS1_EEE4baseEv
	movq	(%rax), %rax
	movq	-56(%rbp), %rdx
	movq	%r12, %rcx
	movq	%rbx, %rsi
	movq	%rax, %rdi
	call	_ZSt34__uninitialized_move_if_noexcept_aIPSt6threadS1_SaIS0_EET0_T_S4_S3_RT1_
.LEHE18:
	movq	%rax, -56(%rbp)
	movq	-72(%rbp), %rax
	movq	%rax, %rdi
	call	_ZNSt12_Vector_baseISt6threadSaIS0_EE19_M_get_Tp_allocatorEv
	movq	%rax, %rdx
	movq	-72(%rbp), %rax
	movq	8(%rax), %rcx
	movq	-72(%rbp), %rax
	movq	(%rax), %rax
	movq	%rcx, %rsi
	movq	%rax, %rdi
.LEHB19:
	call	_ZSt8_DestroyIPSt6threadS0_EvT_S2_RSaIT0_E
	movq	-72(%rbp), %rax
	movq	-72(%rbp), %rdx
	movq	16(%rdx), %rdx
	movq	%rdx, %rcx
	movq	-72(%rbp), %rdx
	movq	(%rdx), %rdx
	subq	%rdx, %rcx
	movq	%rcx, %rdx
	sarq	$3, %rdx
	movq	%rdx, %rsi
	movq	-72(%rbp), %rdx
	movq	(%rdx), %rcx
	movq	%rsi, %rdx
	movq	%rcx, %rsi
	movq	%rax, %rdi
	call	_ZNSt12_Vector_baseISt6threadSaIS0_EE13_M_deallocateEPS0_m
.LEHE19:
	movq	-72(%rbp), %rax
	movq	-32(%rbp), %rdx
	movq	%rdx, (%rax)
	movq	-72(%rbp), %rax
	movq	-56(%rbp), %rdx
	movq	%rdx, 8(%rax)
	movq	-48(%rbp), %rax
	leaq	0(,%rax,8), %rdx
	movq	-32(%rbp), %rax
	addq	%rax, %rdx
	movq	-72(%rbp), %rax
	movq	%rdx, 16(%rax)
	nop
	movq	-24(%rbp), %rax
	xorq	%fs:40, %rax
	je	.L237
	jmp	.L240
.L238:
	movq	%rax, %rdi
	call	__cxa_begin_catch@PLT
	cmpq	$0, -56(%rbp)
	jne	.L234
	movq	-40(%rbp), %rax
	leaq	0(,%rax,8), %rdx
	movq	-32(%rbp), %rax
	addq	%rax, %rdx
	movq	-72(%rbp), %rax
	movq	%rdx, %rsi
	movq	%rax, %rdi
.LEHB20:
	call	_ZNSt16allocator_traitsISaISt6threadEE7destroyIS0_EEvRS1_PT_
	jmp	.L235
.L234:
	movq	-72(%rbp), %rax
	movq	%rax, %rdi
	call	_ZNSt12_Vector_baseISt6threadSaIS0_EE19_M_get_Tp_allocatorEv
	movq	%rax, %rdx
	movq	-56(%rbp), %rcx
	movq	-32(%rbp), %rax
	movq	%rcx, %rsi
	movq	%rax, %rdi
	call	_ZSt8_DestroyIPSt6threadS0_EvT_S2_RSaIT0_E
.L235:
	movq	-72(%rbp), %rax
	movq	-48(%rbp), %rdx
	movq	-32(%rbp), %rcx
	movq	%rcx, %rsi
	movq	%rax, %rdi
	call	_ZNSt12_Vector_baseISt6threadSaIS0_EE13_M_deallocateEPS0_m
	call	__cxa_rethrow@PLT
.LEHE20:
.L239:
	movq	%rax, %rbx
	call	__cxa_end_catch@PLT
	movq	%rbx, %rax
	movq	%rax, %rdi
.LEHB21:
	call	_Unwind_Resume@PLT
.LEHE21:
.L240:
	call	__stack_chk_fail@PLT
.L237:
	addq	$80, %rsp
	popq	%rbx
	popq	%r12
	popq	%rbp
	.cfi_def_cfa 7, 8
	ret
	.cfi_endproc
.LFE9305:
	.section	.gcc_except_table
	.align 4
.LLSDA9305:
	.byte	0xff
	.byte	0x9b
	.uleb128 .LLSDATT9305-.LLSDATTD9305
.LLSDATTD9305:
	.byte	0x1
	.uleb128 .LLSDACSE9305-.LLSDACSB9305
.LLSDACSB9305:
	.uleb128 .LEHB17-.LFB9305
	.uleb128 .LEHE17-.LEHB17
	.uleb128 0
	.uleb128 0
	.uleb128 .LEHB18-.LFB9305
	.uleb128 .LEHE18-.LEHB18
	.uleb128 .L238-.LFB9305
	.uleb128 0x1
	.uleb128 .LEHB19-.LFB9305
	.uleb128 .LEHE19-.LEHB19
	.uleb128 0
	.uleb128 0
	.uleb128 .LEHB20-.LFB9305
	.uleb128 .LEHE20-.LEHB20
	.uleb128 .L239-.LFB9305
	.uleb128 0
	.uleb128 .LEHB21-.LFB9305
	.uleb128 .LEHE21-.LEHB21
	.uleb128 0
	.uleb128 0
.LLSDACSE9305:
	.byte	0x1
	.byte	0
	.align 4
	.long	0

.LLSDATT9305:
	.section	.text._ZNSt6vectorISt6threadSaIS0_EE17_M_realloc_insertIJS0_EEEvN9__gnu_cxx17__normal_iteratorIPS0_S2_EEDpOT_,"axG",@progbits,_ZNSt6vectorISt6threadSaIS0_EE17_M_realloc_insertIJS0_EEEvN9__gnu_cxx17__normal_iteratorIPS0_S2_EEDpOT_,comdat
	.size	_ZNSt6vectorISt6threadSaIS0_EE17_M_realloc_insertIJS0_EEEvN9__gnu_cxx17__normal_iteratorIPS0_S2_EEDpOT_, .-_ZNSt6vectorISt6threadSaIS0_EE17_M_realloc_insertIJS0_EEEvN9__gnu_cxx17__normal_iteratorIPS0_S2_EEDpOT_
	.section	.text._ZNSt10_Head_baseILm0EM14packetAnalyserFvvELb0EEC2IS2_EEOT_,"axG",@progbits,_ZNSt10_Head_baseILm0EM14packetAnalyserFvvELb0EEC5IS2_EEOT_,comdat
	.align 2
	.weak	_ZNSt10_Head_baseILm0EM14packetAnalyserFvvELb0EEC2IS2_EEOT_
	.type	_ZNSt10_Head_baseILm0EM14packetAnalyserFvvELb0EEC2IS2_EEOT_, @function
_ZNSt10_Head_baseILm0EM14packetAnalyserFvvELb0EEC2IS2_EEOT_:
.LFB9307:
	.cfi_startproc
	pushq	%rbp
	.cfi_def_cfa_offset 16
	.cfi_offset 6, -16
	movq	%rsp, %rbp
	.cfi_def_cfa_register 6
	subq	$16, %rsp
	movq	%rdi, -8(%rbp)
	movq	%rsi, -16(%rbp)
	movq	-16(%rbp), %rax
	movq	%rax, %rdi
	call	_ZSt7forwardIM14packetAnalyserFvvEEOT_RNSt16remove_referenceIS3_E4typeE
	movq	-8(%rbp), %rcx
	movq	8(%rax), %rdx
	movq	(%rax), %rax
	movq	%rax, (%rcx)
	movq	%rdx, 8(%rcx)
	nop
	leave
	.cfi_def_cfa 7, 8
	ret
	.cfi_endproc
.LFE9307:
	.size	_ZNSt10_Head_baseILm0EM14packetAnalyserFvvELb0EEC2IS2_EEOT_, .-_ZNSt10_Head_baseILm0EM14packetAnalyserFvvELb0EEC2IS2_EEOT_
	.weak	_ZNSt10_Head_baseILm0EM14packetAnalyserFvvELb0EEC1IS2_EEOT_
	.set	_ZNSt10_Head_baseILm0EM14packetAnalyserFvvELb0EEC1IS2_EEOT_,_ZNSt10_Head_baseILm0EM14packetAnalyserFvvELb0EEC2IS2_EEOT_
	.section	.text._ZNSt11_Tuple_implILm0EJM14packetAnalyserFvvES0_EE7_M_tailERS3_,"axG",@progbits,_ZNSt11_Tuple_implILm0EJM14packetAnalyserFvvES0_EE7_M_tailERS3_,comdat
	.weak	_ZNSt11_Tuple_implILm0EJM14packetAnalyserFvvES0_EE7_M_tailERS3_
	.type	_ZNSt11_Tuple_implILm0EJM14packetAnalyserFvvES0_EE7_M_tailERS3_, @function
_ZNSt11_Tuple_implILm0EJM14packetAnalyserFvvES0_EE7_M_tailERS3_:
.LFB9310:
	.cfi_startproc
	pushq	%rbp
	.cfi_def_cfa_offset 16
	.cfi_offset 6, -16
	movq	%rsp, %rbp
	.cfi_def_cfa_register 6
	movq	%rdi, -8(%rbp)
	movq	-8(%rbp), %rax
	popq	%rbp
	.cfi_def_cfa 7, 8
	ret
	.cfi_endproc
.LFE9310:
	.size	_ZNSt11_Tuple_implILm0EJM14packetAnalyserFvvES0_EE7_M_tailERS3_, .-_ZNSt11_Tuple_implILm0EJM14packetAnalyserFvvES0_EE7_M_tailERS3_
	.section	.text._ZNSt11_Tuple_implILm0EJM14packetAnalyserFvvES0_EE7_M_headERS3_,"axG",@progbits,_ZNSt11_Tuple_implILm0EJM14packetAnalyserFvvES0_EE7_M_headERS3_,comdat
	.weak	_ZNSt11_Tuple_implILm0EJM14packetAnalyserFvvES0_EE7_M_headERS3_
	.type	_ZNSt11_Tuple_implILm0EJM14packetAnalyserFvvES0_EE7_M_headERS3_, @function
_ZNSt11_Tuple_implILm0EJM14packetAnalyserFvvES0_EE7_M_headERS3_:
.LFB9311:
	.cfi_startproc
	pushq	%rbp
	.cfi_def_cfa_offset 16
	.cfi_offset 6, -16
	movq	%rsp, %rbp
	.cfi_def_cfa_register 6
	subq	$16, %rsp
	movq	%rdi, -8(%rbp)
	movq	-8(%rbp), %rax
	addq	$104, %rax
	movq	%rax, %rdi
	call	_ZNSt10_Head_baseILm0EM14packetAnalyserFvvELb0EE7_M_headERS3_
	leave
	.cfi_def_cfa 7, 8
	ret
	.cfi_endproc
.LFE9311:
	.size	_ZNSt11_Tuple_implILm0EJM14packetAnalyserFvvES0_EE7_M_headERS3_, .-_ZNSt11_Tuple_implILm0EJM14packetAnalyserFvvES0_EE7_M_headERS3_
	.section	.text._ZNSt10_Head_baseILm0EM14packetAnalyserFvvELb0EE7_M_headERS3_,"axG",@progbits,_ZNSt10_Head_baseILm0EM14packetAnalyserFvvELb0EE7_M_headERS3_,comdat
	.weak	_ZNSt10_Head_baseILm0EM14packetAnalyserFvvELb0EE7_M_headERS3_
	.type	_ZNSt10_Head_baseILm0EM14packetAnalyserFvvELb0EE7_M_headERS3_, @function
_ZNSt10_Head_baseILm0EM14packetAnalyserFvvELb0EE7_M_headERS3_:
.LFB9312:
	.cfi_startproc
	pushq	%rbp
	.cfi_def_cfa_offset 16
	.cfi_offset 6, -16
	movq	%rsp, %rbp
	.cfi_def_cfa_register 6
	movq	%rdi, -8(%rbp)
	movq	-8(%rbp), %rax
	popq	%rbp
	.cfi_def_cfa 7, 8
	ret
	.cfi_endproc
.LFE9312:
	.size	_ZNSt10_Head_baseILm0EM14packetAnalyserFvvELb0EE7_M_headERS3_, .-_ZNSt10_Head_baseILm0EM14packetAnalyserFvvELb0EE7_M_headERS3_
	.section	.text._ZSt4moveIRSt11_Tuple_implILm1EJ14packetAnalyserEEEONSt16remove_referenceIT_E4typeEOS5_,"axG",@progbits,_ZSt4moveIRSt11_Tuple_implILm1EJ14packetAnalyserEEEONSt16remove_referenceIT_E4typeEOS5_,comdat
	.weak	_ZSt4moveIRSt11_Tuple_implILm1EJ14packetAnalyserEEEONSt16remove_referenceIT_E4typeEOS5_
	.type	_ZSt4moveIRSt11_Tuple_implILm1EJ14packetAnalyserEEEONSt16remove_referenceIT_E4typeEOS5_, @function
_ZSt4moveIRSt11_Tuple_implILm1EJ14packetAnalyserEEEONSt16remove_referenceIT_E4typeEOS5_:
.LFB9313:
	.cfi_startproc
	pushq	%rbp
	.cfi_def_cfa_offset 16
	.cfi_offset 6, -16
	movq	%rsp, %rbp
	.cfi_def_cfa_register 6
	movq	%rdi, -8(%rbp)
	movq	-8(%rbp), %rax
	popq	%rbp
	.cfi_def_cfa 7, 8
	ret
	.cfi_endproc
.LFE9313:
	.size	_ZSt4moveIRSt11_Tuple_implILm1EJ14packetAnalyserEEEONSt16remove_referenceIT_E4typeEOS5_, .-_ZSt4moveIRSt11_Tuple_implILm1EJ14packetAnalyserEEEONSt16remove_referenceIT_E4typeEOS5_
	.section	.text._ZNSt11_Tuple_implILm0EJM14packetAnalyserFvvES0_EEC2EOS3_,"axG",@progbits,_ZNSt11_Tuple_implILm0EJM14packetAnalyserFvvES0_EEC5EOS3_,comdat
	.align 2
	.weak	_ZNSt11_Tuple_implILm0EJM14packetAnalyserFvvES0_EEC2EOS3_
	.type	_ZNSt11_Tuple_implILm0EJM14packetAnalyserFvvES0_EEC2EOS3_, @function
_ZNSt11_Tuple_implILm0EJM14packetAnalyserFvvES0_EEC2EOS3_:
.LFB9314:
	.cfi_startproc
	pushq	%rbp
	.cfi_def_cfa_offset 16
	.cfi_offset 6, -16
	movq	%rsp, %rbp
	.cfi_def_cfa_register 6
	pushq	%rbx
	subq	$24, %rsp
	.cfi_offset 3, -24
	movq	%rdi, -24(%rbp)
	movq	%rsi, -32(%rbp)
	movq	-24(%rbp), %rbx
	movq	-32(%rbp), %rax
	movq	%rax, %rdi
	call	_ZNSt11_Tuple_implILm0EJM14packetAnalyserFvvES0_EE7_M_tailERS3_
	movq	%rax, %rdi
	call	_ZSt4moveIRSt11_Tuple_implILm1EJ14packetAnalyserEEEONSt16remove_referenceIT_E4typeEOS5_
	movq	%rax, %rsi
	movq	%rbx, %rdi
	call	_ZNSt11_Tuple_implILm1EJ14packetAnalyserEEC2EOS1_
	movq	-24(%rbp), %rax
	leaq	104(%rax), %rbx
	movq	-32(%rbp), %rax
	movq	%rax, %rdi
	call	_ZNSt11_Tuple_implILm0EJM14packetAnalyserFvvES0_EE7_M_headERS3_
	movq	%rax, %rdi
	call	_ZSt7forwardIM14packetAnalyserFvvEEOT_RNSt16remove_referenceIS3_E4typeE
	movq	%rax, %rsi
	movq	%rbx, %rdi
	call	_ZNSt10_Head_baseILm0EM14packetAnalyserFvvELb0EEC2IS2_EEOT_
	nop
	addq	$24, %rsp
	popq	%rbx
	popq	%rbp
	.cfi_def_cfa 7, 8
	ret
	.cfi_endproc
.LFE9314:
	.size	_ZNSt11_Tuple_implILm0EJM14packetAnalyserFvvES0_EEC2EOS3_, .-_ZNSt11_Tuple_implILm0EJM14packetAnalyserFvvES0_EEC2EOS3_
	.weak	_ZNSt11_Tuple_implILm0EJM14packetAnalyserFvvES0_EEC1EOS3_
	.set	_ZNSt11_Tuple_implILm0EJM14packetAnalyserFvvES0_EEC1EOS3_,_ZNSt11_Tuple_implILm0EJM14packetAnalyserFvvES0_EEC2EOS3_
	.section	.text._ZSt8__invfwdI14packetAnalyserS0_EOT0_RNSt16remove_referenceIT_E4typeE,"axG",@progbits,_ZSt8__invfwdI14packetAnalyserS0_EOT0_RNSt16remove_referenceIT_E4typeE,comdat
	.weak	_ZSt8__invfwdI14packetAnalyserS0_EOT0_RNSt16remove_referenceIT_E4typeE
	.type	_ZSt8__invfwdI14packetAnalyserS0_EOT0_RNSt16remove_referenceIT_E4typeE, @function
_ZSt8__invfwdI14packetAnalyserS0_EOT0_RNSt16remove_referenceIT_E4typeE:
.LFB9316:
	.cfi_startproc
	pushq	%rbp
	.cfi_def_cfa_offset 16
	.cfi_offset 6, -16
	movq	%rsp, %rbp
	.cfi_def_cfa_register 6
	movq	%rdi, -8(%rbp)
	movq	-8(%rbp), %rax
	popq	%rbp
	.cfi_def_cfa 7, 8
	ret
	.cfi_endproc
.LFE9316:
	.size	_ZSt8__invfwdI14packetAnalyserS0_EOT0_RNSt16remove_referenceIT_E4typeE, .-_ZSt8__invfwdI14packetAnalyserS0_EOT0_RNSt16remove_referenceIT_E4typeE
	.section	.text._ZNSt6thread8_InvokerISt5tupleIJM14packetAnalyserFvvES2_EEEC2EOS6_,"axG",@progbits,_ZNSt6thread8_InvokerISt5tupleIJM14packetAnalyserFvvES2_EEEC5EOS6_,comdat
	.align 2
	.weak	_ZNSt6thread8_InvokerISt5tupleIJM14packetAnalyserFvvES2_EEEC2EOS6_
	.type	_ZNSt6thread8_InvokerISt5tupleIJM14packetAnalyserFvvES2_EEEC2EOS6_, @function
_ZNSt6thread8_InvokerISt5tupleIJM14packetAnalyserFvvES2_EEEC2EOS6_:
.LFB9319:
	.cfi_startproc
	pushq	%rbp
	.cfi_def_cfa_offset 16
	.cfi_offset 6, -16
	movq	%rsp, %rbp
	.cfi_def_cfa_register 6
	subq	$16, %rsp
	movq	%rdi, -8(%rbp)
	movq	%rsi, -16(%rbp)
	movq	-8(%rbp), %rax
	movq	-16(%rbp), %rdx
	movq	%rdx, %rsi
	movq	%rax, %rdi
	call	_ZNSt5tupleIJM14packetAnalyserFvvES0_EEC1EOS3_
	nop
	leave
	.cfi_def_cfa 7, 8
	ret
	.cfi_endproc
.LFE9319:
	.size	_ZNSt6thread8_InvokerISt5tupleIJM14packetAnalyserFvvES2_EEEC2EOS6_, .-_ZNSt6thread8_InvokerISt5tupleIJM14packetAnalyserFvvES2_EEEC2EOS6_
	.weak	_ZNSt6thread8_InvokerISt5tupleIJM14packetAnalyserFvvES2_EEEC1EOS6_
	.set	_ZNSt6thread8_InvokerISt5tupleIJM14packetAnalyserFvvES2_EEEC1EOS6_,_ZNSt6thread8_InvokerISt5tupleIJM14packetAnalyserFvvES2_EEEC2EOS6_
	.section	.text._ZNSt6thread11_State_implINS_8_InvokerISt5tupleIJM14packetAnalyserFvvES3_EEEEEC2EOS7_,"axG",@progbits,_ZNSt6thread11_State_implINS_8_InvokerISt5tupleIJM14packetAnalyserFvvES3_EEEEEC5EOS7_,comdat
	.align 2
	.weak	_ZNSt6thread11_State_implINS_8_InvokerISt5tupleIJM14packetAnalyserFvvES3_EEEEEC2EOS7_
	.type	_ZNSt6thread11_State_implINS_8_InvokerISt5tupleIJM14packetAnalyserFvvES3_EEEEEC2EOS7_, @function
_ZNSt6thread11_State_implINS_8_InvokerISt5tupleIJM14packetAnalyserFvvES3_EEEEEC2EOS7_:
.LFB9321:
	.cfi_startproc
	pushq	%rbp
	.cfi_def_cfa_offset 16
	.cfi_offset 6, -16
	movq	%rsp, %rbp
	.cfi_def_cfa_register 6
	pushq	%rbx
	subq	$24, %rsp
	.cfi_offset 3, -24
	movq	%rdi, -24(%rbp)
	movq	%rsi, -32(%rbp)
	movq	-24(%rbp), %rax
	movq	%rax, %rdi
	call	_ZNSt6thread6_StateC2Ev
	leaq	16+_ZTVNSt6thread11_State_implINS_8_InvokerISt5tupleIJM14packetAnalyserFvvES3_EEEEEE(%rip), %rdx
	movq	-24(%rbp), %rax
	movq	%rdx, (%rax)
	movq	-24(%rbp), %rax
	leaq	8(%rax), %rbx
	movq	-32(%rbp), %rax
	movq	%rax, %rdi
	call	_ZSt7forwardINSt6thread8_InvokerISt5tupleIJM14packetAnalyserFvvES3_EEEEEOT_RNSt16remove_referenceIS8_E4typeE
	movq	%rax, %rsi
	movq	%rbx, %rdi
	call	_ZNSt6thread8_InvokerISt5tupleIJM14packetAnalyserFvvES2_EEEC1EOS6_
	nop
	addq	$24, %rsp
	popq	%rbx
	popq	%rbp
	.cfi_def_cfa 7, 8
	ret
	.cfi_endproc
.LFE9321:
	.size	_ZNSt6thread11_State_implINS_8_InvokerISt5tupleIJM14packetAnalyserFvvES3_EEEEEC2EOS7_, .-_ZNSt6thread11_State_implINS_8_InvokerISt5tupleIJM14packetAnalyserFvvES3_EEEEEC2EOS7_
	.weak	_ZNSt6thread11_State_implINS_8_InvokerISt5tupleIJM14packetAnalyserFvvES3_EEEEEC1EOS7_
	.set	_ZNSt6thread11_State_implINS_8_InvokerISt5tupleIJM14packetAnalyserFvvES3_EEEEEC1EOS7_,_ZNSt6thread11_State_implINS_8_InvokerISt5tupleIJM14packetAnalyserFvvES3_EEEEEC2EOS7_
	.section	.text._ZNSt12_Vector_baseISt6threadSaIS0_EE12_Vector_implC2Ev,"axG",@progbits,_ZNSt12_Vector_baseISt6threadSaIS0_EE12_Vector_implC5Ev,comdat
	.align 2
	.weak	_ZNSt12_Vector_baseISt6threadSaIS0_EE12_Vector_implC2Ev
	.type	_ZNSt12_Vector_baseISt6threadSaIS0_EE12_Vector_implC2Ev, @function
_ZNSt12_Vector_baseISt6threadSaIS0_EE12_Vector_implC2Ev:
.LFB9324:
	.cfi_startproc
	pushq	%rbp
	.cfi_def_cfa_offset 16
	.cfi_offset 6, -16
	movq	%rsp, %rbp
	.cfi_def_cfa_register 6
	subq	$16, %rsp
	movq	%rdi, -8(%rbp)
	movq	-8(%rbp), %rax
	movq	%rax, %rdi
	call	_ZNSaISt6threadEC2Ev
	movq	-8(%rbp), %rax
	movq	$0, (%rax)
	movq	-8(%rbp), %rax
	movq	$0, 8(%rax)
	movq	-8(%rbp), %rax
	movq	$0, 16(%rax)
	nop
	leave
	.cfi_def_cfa 7, 8
	ret
	.cfi_endproc
.LFE9324:
	.size	_ZNSt12_Vector_baseISt6threadSaIS0_EE12_Vector_implC2Ev, .-_ZNSt12_Vector_baseISt6threadSaIS0_EE12_Vector_implC2Ev
	.weak	_ZNSt12_Vector_baseISt6threadSaIS0_EE12_Vector_implC1Ev
	.set	_ZNSt12_Vector_baseISt6threadSaIS0_EE12_Vector_implC1Ev,_ZNSt12_Vector_baseISt6threadSaIS0_EE12_Vector_implC2Ev
	.section	.text._ZNSaISt6threadED2Ev,"axG",@progbits,_ZNSaISt6threadED5Ev,comdat
	.align 2
	.weak	_ZNSaISt6threadED2Ev
	.type	_ZNSaISt6threadED2Ev, @function
_ZNSaISt6threadED2Ev:
.LFB9327:
	.cfi_startproc
	pushq	%rbp
	.cfi_def_cfa_offset 16
	.cfi_offset 6, -16
	movq	%rsp, %rbp
	.cfi_def_cfa_register 6
	subq	$16, %rsp
	movq	%rdi, -8(%rbp)
	movq	-8(%rbp), %rax
	movq	%rax, %rdi
	call	_ZN9__gnu_cxx13new_allocatorISt6threadED2Ev
	nop
	leave
	.cfi_def_cfa 7, 8
	ret
	.cfi_endproc
.LFE9327:
	.size	_ZNSaISt6threadED2Ev, .-_ZNSaISt6threadED2Ev
	.weak	_ZNSaISt6threadED1Ev
	.set	_ZNSaISt6threadED1Ev,_ZNSaISt6threadED2Ev
	.section	.text._ZNSt12_Vector_baseISt6threadSaIS0_EE13_M_deallocateEPS0_m,"axG",@progbits,_ZNSt12_Vector_baseISt6threadSaIS0_EE13_M_deallocateEPS0_m,comdat
	.align 2
	.weak	_ZNSt12_Vector_baseISt6threadSaIS0_EE13_M_deallocateEPS0_m
	.type	_ZNSt12_Vector_baseISt6threadSaIS0_EE13_M_deallocateEPS0_m, @function
_ZNSt12_Vector_baseISt6threadSaIS0_EE13_M_deallocateEPS0_m:
.LFB9329:
	.cfi_startproc
	pushq	%rbp
	.cfi_def_cfa_offset 16
	.cfi_offset 6, -16
	movq	%rsp, %rbp
	.cfi_def_cfa_register 6
	subq	$32, %rsp
	movq	%rdi, -8(%rbp)
	movq	%rsi, -16(%rbp)
	movq	%rdx, -24(%rbp)
	cmpq	$0, -16(%rbp)
	je	.L259
	movq	-8(%rbp), %rax
	movq	-24(%rbp), %rdx
	movq	-16(%rbp), %rcx
	movq	%rcx, %rsi
	movq	%rax, %rdi
	call	_ZNSt16allocator_traitsISaISt6threadEE10deallocateERS1_PS0_m
.L259:
	nop
	leave
	.cfi_def_cfa 7, 8
	ret
	.cfi_endproc
.LFE9329:
	.size	_ZNSt12_Vector_baseISt6threadSaIS0_EE13_M_deallocateEPS0_m, .-_ZNSt12_Vector_baseISt6threadSaIS0_EE13_M_deallocateEPS0_m
	.section	.text._ZSt8_DestroyIPSt6threadEvT_S2_,"axG",@progbits,_ZSt8_DestroyIPSt6threadEvT_S2_,comdat
	.weak	_ZSt8_DestroyIPSt6threadEvT_S2_
	.type	_ZSt8_DestroyIPSt6threadEvT_S2_, @function
_ZSt8_DestroyIPSt6threadEvT_S2_:
.LFB9330:
	.cfi_startproc
	pushq	%rbp
	.cfi_def_cfa_offset 16
	.cfi_offset 6, -16
	movq	%rsp, %rbp
	.cfi_def_cfa_register 6
	subq	$16, %rsp
	movq	%rdi, -8(%rbp)
	movq	%rsi, -16(%rbp)
	movq	-16(%rbp), %rdx
	movq	-8(%rbp), %rax
	movq	%rdx, %rsi
	movq	%rax, %rdi
	call	_ZNSt12_Destroy_auxILb0EE9__destroyIPSt6threadEEvT_S4_
	nop
	leave
	.cfi_def_cfa 7, 8
	ret
	.cfi_endproc
.LFE9330:
	.size	_ZSt8_DestroyIPSt6threadEvT_S2_, .-_ZSt8_DestroyIPSt6threadEvT_S2_
	.section	.text._ZNSt15__uniq_ptr_implINSt6thread6_StateESt14default_deleteIS1_EEC2EPS1_,"axG",@progbits,_ZNSt15__uniq_ptr_implINSt6thread6_StateESt14default_deleteIS1_EEC5EPS1_,comdat
	.align 2
	.weak	_ZNSt15__uniq_ptr_implINSt6thread6_StateESt14default_deleteIS1_EEC2EPS1_
	.type	_ZNSt15__uniq_ptr_implINSt6thread6_StateESt14default_deleteIS1_EEC2EPS1_, @function
_ZNSt15__uniq_ptr_implINSt6thread6_StateESt14default_deleteIS1_EEC2EPS1_:
.LFB9429:
	.cfi_startproc
	pushq	%rbp
	.cfi_def_cfa_offset 16
	.cfi_offset 6, -16
	movq	%rsp, %rbp
	.cfi_def_cfa_register 6
	subq	$16, %rsp
	movq	%rdi, -8(%rbp)
	movq	%rsi, -16(%rbp)
	movq	-8(%rbp), %rax
	movq	%rax, %rdi
	call	_ZNSt5tupleIJPNSt6thread6_StateESt14default_deleteIS1_EEEC1IS2_S4_Lb1EEEv
	movq	-8(%rbp), %rax
	movq	%rax, %rdi
	call	_ZNSt15__uniq_ptr_implINSt6thread6_StateESt14default_deleteIS1_EE6_M_ptrEv
	movq	%rax, %rdx
	movq	-16(%rbp), %rax
	movq	%rax, (%rdx)
	nop
	leave
	.cfi_def_cfa 7, 8
	ret
	.cfi_endproc
.LFE9429:
	.size	_ZNSt15__uniq_ptr_implINSt6thread6_StateESt14default_deleteIS1_EEC2EPS1_, .-_ZNSt15__uniq_ptr_implINSt6thread6_StateESt14default_deleteIS1_EEC2EPS1_
	.weak	_ZNSt15__uniq_ptr_implINSt6thread6_StateESt14default_deleteIS1_EEC1EPS1_
	.set	_ZNSt15__uniq_ptr_implINSt6thread6_StateESt14default_deleteIS1_EEC1EPS1_,_ZNSt15__uniq_ptr_implINSt6thread6_StateESt14default_deleteIS1_EEC2EPS1_
	.section	.text._ZSt3getILm0EJPNSt6thread6_StateESt14default_deleteIS1_EEERNSt13tuple_elementIXT_ESt5tupleIJDpT0_EEE4typeERS9_,"axG",@progbits,_ZSt3getILm0EJPNSt6thread6_StateESt14default_deleteIS1_EEERNSt13tuple_elementIXT_ESt5tupleIJDpT0_EEE4typeERS9_,comdat
	.weak	_ZSt3getILm0EJPNSt6thread6_StateESt14default_deleteIS1_EEERNSt13tuple_elementIXT_ESt5tupleIJDpT0_EEE4typeERS9_
	.type	_ZSt3getILm0EJPNSt6thread6_StateESt14default_deleteIS1_EEERNSt13tuple_elementIXT_ESt5tupleIJDpT0_EEE4typeERS9_, @function
_ZSt3getILm0EJPNSt6thread6_StateESt14default_deleteIS1_EEERNSt13tuple_elementIXT_ESt5tupleIJDpT0_EEE4typeERS9_:
.LFB9431:
	.cfi_startproc
	pushq	%rbp
	.cfi_def_cfa_offset 16
	.cfi_offset 6, -16
	movq	%rsp, %rbp
	.cfi_def_cfa_register 6
	subq	$16, %rsp
	movq	%rdi, -8(%rbp)
	movq	-8(%rbp), %rax
	movq	%rax, %rdi
	call	_ZSt12__get_helperILm0EPNSt6thread6_StateEJSt14default_deleteIS1_EEERT0_RSt11_Tuple_implIXT_EJS5_DpT1_EE
	leave
	.cfi_def_cfa 7, 8
	ret
	.cfi_endproc
.LFE9431:
	.size	_ZSt3getILm0EJPNSt6thread6_StateESt14default_deleteIS1_EEERNSt13tuple_elementIXT_ESt5tupleIJDpT0_EEE4typeERS9_, .-_ZSt3getILm0EJPNSt6thread6_StateESt14default_deleteIS1_EEERNSt13tuple_elementIXT_ESt5tupleIJDpT0_EEE4typeERS9_
	.section	.text._ZNSt15__uniq_ptr_implINSt6thread6_StateESt14default_deleteIS1_EE10_M_deleterEv,"axG",@progbits,_ZNSt15__uniq_ptr_implINSt6thread6_StateESt14default_deleteIS1_EE10_M_deleterEv,comdat
	.align 2
	.weak	_ZNSt15__uniq_ptr_implINSt6thread6_StateESt14default_deleteIS1_EE10_M_deleterEv
	.type	_ZNSt15__uniq_ptr_implINSt6thread6_StateESt14default_deleteIS1_EE10_M_deleterEv, @function
_ZNSt15__uniq_ptr_implINSt6thread6_StateESt14default_deleteIS1_EE10_M_deleterEv:
.LFB9432:
	.cfi_startproc
	pushq	%rbp
	.cfi_def_cfa_offset 16
	.cfi_offset 6, -16
	movq	%rsp, %rbp
	.cfi_def_cfa_register 6
	subq	$16, %rsp
	movq	%rdi, -8(%rbp)
	movq	-8(%rbp), %rax
	movq	%rax, %rdi
	call	_ZSt3getILm1EJPNSt6thread6_StateESt14default_deleteIS1_EEERNSt13tuple_elementIXT_ESt5tupleIJDpT0_EEE4typeERS9_
	leave
	.cfi_def_cfa 7, 8
	ret
	.cfi_endproc
.LFE9432:
	.size	_ZNSt15__uniq_ptr_implINSt6thread6_StateESt14default_deleteIS1_EE10_M_deleterEv, .-_ZNSt15__uniq_ptr_implINSt6thread6_StateESt14default_deleteIS1_EE10_M_deleterEv
	.section	.text._ZN9__gnu_cxx13new_allocatorISt6threadE9constructIS1_JS1_EEEvPT_DpOT0_,"axG",@progbits,_ZN9__gnu_cxx13new_allocatorISt6threadE9constructIS1_JS1_EEEvPT_DpOT0_,comdat
	.align 2
	.weak	_ZN9__gnu_cxx13new_allocatorISt6threadE9constructIS1_JS1_EEEvPT_DpOT0_
	.type	_ZN9__gnu_cxx13new_allocatorISt6threadE9constructIS1_JS1_EEEvPT_DpOT0_, @function
_ZN9__gnu_cxx13new_allocatorISt6threadE9constructIS1_JS1_EEEvPT_DpOT0_:
.LFB9438:
	.cfi_startproc
	pushq	%rbp
	.cfi_def_cfa_offset 16
	.cfi_offset 6, -16
	movq	%rsp, %rbp
	.cfi_def_cfa_register 6
	pushq	%rbx
	subq	$40, %rsp
	.cfi_offset 3, -24
	movq	%rdi, -24(%rbp)
	movq	%rsi, -32(%rbp)
	movq	%rdx, -40(%rbp)
	movq	-40(%rbp), %rax
	movq	%rax, %rdi
	call	_ZSt7forwardISt6threadEOT_RNSt16remove_referenceIS1_E4typeE
	movq	%rax, %rbx
	movq	-32(%rbp), %rax
	movq	%rax, %rsi
	movl	$8, %edi
	call	_ZnwmPv
	testq	%rax, %rax
	je	.L269
	movq	%rbx, %rsi
	movq	%rax, %rdi
	call	_ZNSt6threadC1EOS_
.L269:
	nop
	addq	$40, %rsp
	popq	%rbx
	popq	%rbp
	.cfi_def_cfa 7, 8
	ret
	.cfi_endproc
.LFE9438:
	.size	_ZN9__gnu_cxx13new_allocatorISt6threadE9constructIS1_JS1_EEEvPT_DpOT0_, .-_ZN9__gnu_cxx13new_allocatorISt6threadE9constructIS1_JS1_EEEvPT_DpOT0_
	.section	.text._ZNKSt6vectorISt6threadSaIS0_EE12_M_check_lenEmPKc,"axG",@progbits,_ZNKSt6vectorISt6threadSaIS0_EE12_M_check_lenEmPKc,comdat
	.align 2
	.weak	_ZNKSt6vectorISt6threadSaIS0_EE12_M_check_lenEmPKc
	.type	_ZNKSt6vectorISt6threadSaIS0_EE12_M_check_lenEmPKc, @function
_ZNKSt6vectorISt6threadSaIS0_EE12_M_check_lenEmPKc:
.LFB9439:
	.cfi_startproc
	pushq	%rbp
	.cfi_def_cfa_offset 16
	.cfi_offset 6, -16
	movq	%rsp, %rbp
	.cfi_def_cfa_register 6
	pushq	%rbx
	subq	$72, %rsp
	.cfi_offset 3, -24
	movq	%rdi, -56(%rbp)
	movq	%rsi, -64(%rbp)
	movq	%rdx, -72(%rbp)
	movq	%fs:40, %rax
	movq	%rax, -24(%rbp)
	xorl	%eax, %eax
	movq	-56(%rbp), %rax
	movq	%rax, %rdi
	call	_ZNKSt6vectorISt6threadSaIS0_EE8max_sizeEv
	movq	%rax, %rbx
	movq	-56(%rbp), %rax
	movq	%rax, %rdi
	call	_ZNKSt6vectorISt6threadSaIS0_EE4sizeEv
	subq	%rax, %rbx
	movq	%rbx, %rdx
	movq	-64(%rbp), %rax
	cmpq	%rax, %rdx
	setb	%al
	testb	%al, %al
	je	.L271
	movq	-72(%rbp), %rax
	movq	%rax, %rdi
	call	_ZSt20__throw_length_errorPKc@PLT
.L271:
	movq	-56(%rbp), %rax
	movq	%rax, %rdi
	call	_ZNKSt6vectorISt6threadSaIS0_EE4sizeEv
	movq	%rax, %rbx
	movq	-56(%rbp), %rax
	movq	%rax, %rdi
	call	_ZNKSt6vectorISt6threadSaIS0_EE4sizeEv
	movq	%rax, -40(%rbp)
	leaq	-64(%rbp), %rdx
	leaq	-40(%rbp), %rax
	movq	%rdx, %rsi
	movq	%rax, %rdi
	call	_ZSt3maxImERKT_S2_S2_
	movq	(%rax), %rax
	addq	%rbx, %rax
	movq	%rax, -32(%rbp)
	movq	-56(%rbp), %rax
	movq	%rax, %rdi
	call	_ZNKSt6vectorISt6threadSaIS0_EE4sizeEv
	cmpq	%rax, -32(%rbp)
	jb	.L272
	movq	-56(%rbp), %rax
	movq	%rax, %rdi
	call	_ZNKSt6vectorISt6threadSaIS0_EE8max_sizeEv
	cmpq	%rax, -32(%rbp)
	jbe	.L273
.L272:
	movq	-56(%rbp), %rax
	movq	%rax, %rdi
	call	_ZNKSt6vectorISt6threadSaIS0_EE8max_sizeEv
	jmp	.L274
.L273:
	movq	-32(%rbp), %rax
.L274:
	movq	-24(%rbp), %rcx
	xorq	%fs:40, %rcx
	je	.L276
	call	__stack_chk_fail@PLT
.L276:
	addq	$72, %rsp
	popq	%rbx
	popq	%rbp
	.cfi_def_cfa 7, 8
	ret
	.cfi_endproc
.LFE9439:
	.size	_ZNKSt6vectorISt6threadSaIS0_EE12_M_check_lenEmPKc, .-_ZNKSt6vectorISt6threadSaIS0_EE12_M_check_lenEmPKc
	.section	.text._ZN9__gnu_cxxmiIPSt6threadSt6vectorIS1_SaIS1_EEEENS_17__normal_iteratorIT_T0_E15difference_typeERKS9_SC_,"axG",@progbits,_ZN9__gnu_cxxmiIPSt6threadSt6vectorIS1_SaIS1_EEEENS_17__normal_iteratorIT_T0_E15difference_typeERKS9_SC_,comdat
	.weak	_ZN9__gnu_cxxmiIPSt6threadSt6vectorIS1_SaIS1_EEEENS_17__normal_iteratorIT_T0_E15difference_typeERKS9_SC_
	.type	_ZN9__gnu_cxxmiIPSt6threadSt6vectorIS1_SaIS1_EEEENS_17__normal_iteratorIT_T0_E15difference_typeERKS9_SC_, @function
_ZN9__gnu_cxxmiIPSt6threadSt6vectorIS1_SaIS1_EEEENS_17__normal_iteratorIT_T0_E15difference_typeERKS9_SC_:
.LFB9440:
	.cfi_startproc
	pushq	%rbp
	.cfi_def_cfa_offset 16
	.cfi_offset 6, -16
	movq	%rsp, %rbp
	.cfi_def_cfa_register 6
	pushq	%rbx
	subq	$24, %rsp
	.cfi_offset 3, -24
	movq	%rdi, -24(%rbp)
	movq	%rsi, -32(%rbp)
	movq	-24(%rbp), %rax
	movq	%rax, %rdi
	call	_ZNK9__gnu_cxx17__normal_iteratorIPSt6threadSt6vectorIS1_SaIS1_EEE4baseEv
	movq	(%rax), %rax
	movq	%rax, %rbx
	movq	-32(%rbp), %rax
	movq	%rax, %rdi
	call	_ZNK9__gnu_cxx17__normal_iteratorIPSt6threadSt6vectorIS1_SaIS1_EEE4baseEv
	movq	(%rax), %rax
	subq	%rax, %rbx
	movq	%rbx, %rax
	sarq	$3, %rax
	addq	$24, %rsp
	popq	%rbx
	popq	%rbp
	.cfi_def_cfa 7, 8
	ret
	.cfi_endproc
.LFE9440:
	.size	_ZN9__gnu_cxxmiIPSt6threadSt6vectorIS1_SaIS1_EEEENS_17__normal_iteratorIT_T0_E15difference_typeERKS9_SC_, .-_ZN9__gnu_cxxmiIPSt6threadSt6vectorIS1_SaIS1_EEEENS_17__normal_iteratorIT_T0_E15difference_typeERKS9_SC_
	.section	.text._ZNSt12_Vector_baseISt6threadSaIS0_EE11_M_allocateEm,"axG",@progbits,_ZNSt12_Vector_baseISt6threadSaIS0_EE11_M_allocateEm,comdat
	.align 2
	.weak	_ZNSt12_Vector_baseISt6threadSaIS0_EE11_M_allocateEm
	.type	_ZNSt12_Vector_baseISt6threadSaIS0_EE11_M_allocateEm, @function
_ZNSt12_Vector_baseISt6threadSaIS0_EE11_M_allocateEm:
.LFB9441:
	.cfi_startproc
	pushq	%rbp
	.cfi_def_cfa_offset 16
	.cfi_offset 6, -16
	movq	%rsp, %rbp
	.cfi_def_cfa_register 6
	subq	$16, %rsp
	movq	%rdi, -8(%rbp)
	movq	%rsi, -16(%rbp)
	cmpq	$0, -16(%rbp)
	je	.L280
	movq	-8(%rbp), %rax
	movq	-16(%rbp), %rdx
	movq	%rdx, %rsi
	movq	%rax, %rdi
	call	_ZNSt16allocator_traitsISaISt6threadEE8allocateERS1_m
	jmp	.L282
.L280:
	movl	$0, %eax
.L282:
	leave
	.cfi_def_cfa 7, 8
	ret
	.cfi_endproc
.LFE9441:
	.size	_ZNSt12_Vector_baseISt6threadSaIS0_EE11_M_allocateEm, .-_ZNSt12_Vector_baseISt6threadSaIS0_EE11_M_allocateEm
	.section	.text._ZSt34__uninitialized_move_if_noexcept_aIPSt6threadS1_SaIS0_EET0_T_S4_S3_RT1_,"axG",@progbits,_ZSt34__uninitialized_move_if_noexcept_aIPSt6threadS1_SaIS0_EET0_T_S4_S3_RT1_,comdat
	.weak	_ZSt34__uninitialized_move_if_noexcept_aIPSt6threadS1_SaIS0_EET0_T_S4_S3_RT1_
	.type	_ZSt34__uninitialized_move_if_noexcept_aIPSt6threadS1_SaIS0_EET0_T_S4_S3_RT1_, @function
_ZSt34__uninitialized_move_if_noexcept_aIPSt6threadS1_SaIS0_EET0_T_S4_S3_RT1_:
.LFB9442:
	.cfi_startproc
	pushq	%rbp
	.cfi_def_cfa_offset 16
	.cfi_offset 6, -16
	movq	%rsp, %rbp
	.cfi_def_cfa_register 6
	pushq	%rbx
	subq	$40, %rsp
	.cfi_offset 3, -24
	movq	%rdi, -24(%rbp)
	movq	%rsi, -32(%rbp)
	movq	%rdx, -40(%rbp)
	movq	%rcx, -48(%rbp)
	movq	-32(%rbp), %rax
	movq	%rax, %rdi
	call	_ZSt32__make_move_if_noexcept_iteratorISt6threadSt13move_iteratorIPS0_EET0_PT_
	movq	%rax, %rbx
	movq	-24(%rbp), %rax
	movq	%rax, %rdi
	call	_ZSt32__make_move_if_noexcept_iteratorISt6threadSt13move_iteratorIPS0_EET0_PT_
	movq	%rax, %rdi
	movq	-48(%rbp), %rdx
	movq	-40(%rbp), %rax
	movq	%rdx, %rcx
	movq	%rax, %rdx
	movq	%rbx, %rsi
	call	_ZSt22__uninitialized_copy_aISt13move_iteratorIPSt6threadES2_S1_ET0_T_S5_S4_RSaIT1_E
	addq	$40, %rsp
	popq	%rbx
	popq	%rbp
	.cfi_def_cfa 7, 8
	ret
	.cfi_endproc
.LFE9442:
	.size	_ZSt34__uninitialized_move_if_noexcept_aIPSt6threadS1_SaIS0_EET0_T_S4_S3_RT1_, .-_ZSt34__uninitialized_move_if_noexcept_aIPSt6threadS1_SaIS0_EET0_T_S4_S3_RT1_
	.section	.text._ZNSt16allocator_traitsISaISt6threadEE7destroyIS0_EEvRS1_PT_,"axG",@progbits,_ZNSt16allocator_traitsISaISt6threadEE7destroyIS0_EEvRS1_PT_,comdat
	.weak	_ZNSt16allocator_traitsISaISt6threadEE7destroyIS0_EEvRS1_PT_
	.type	_ZNSt16allocator_traitsISaISt6threadEE7destroyIS0_EEvRS1_PT_, @function
_ZNSt16allocator_traitsISaISt6threadEE7destroyIS0_EEvRS1_PT_:
.LFB9443:
	.cfi_startproc
	pushq	%rbp
	.cfi_def_cfa_offset 16
	.cfi_offset 6, -16
	movq	%rsp, %rbp
	.cfi_def_cfa_register 6
	subq	$16, %rsp
	movq	%rdi, -8(%rbp)
	movq	%rsi, -16(%rbp)
	movq	-16(%rbp), %rdx
	movq	-8(%rbp), %rax
	movq	%rdx, %rsi
	movq	%rax, %rdi
	call	_ZN9__gnu_cxx13new_allocatorISt6threadE7destroyIS1_EEvPT_
	nop
	leave
	.cfi_def_cfa 7, 8
	ret
	.cfi_endproc
.LFE9443:
	.size	_ZNSt16allocator_traitsISaISt6threadEE7destroyIS0_EEvRS1_PT_, .-_ZNSt16allocator_traitsISaISt6threadEE7destroyIS0_EEvRS1_PT_
	.section	.text._ZNSaISt6threadEC2Ev,"axG",@progbits,_ZNSaISt6threadEC5Ev,comdat
	.align 2
	.weak	_ZNSaISt6threadEC2Ev
	.type	_ZNSaISt6threadEC2Ev, @function
_ZNSaISt6threadEC2Ev:
.LFB9445:
	.cfi_startproc
	pushq	%rbp
	.cfi_def_cfa_offset 16
	.cfi_offset 6, -16
	movq	%rsp, %rbp
	.cfi_def_cfa_register 6
	subq	$16, %rsp
	movq	%rdi, -8(%rbp)
	movq	-8(%rbp), %rax
	movq	%rax, %rdi
	call	_ZN9__gnu_cxx13new_allocatorISt6threadEC2Ev
	nop
	leave
	.cfi_def_cfa 7, 8
	ret
	.cfi_endproc
.LFE9445:
	.size	_ZNSaISt6threadEC2Ev, .-_ZNSaISt6threadEC2Ev
	.weak	_ZNSaISt6threadEC1Ev
	.set	_ZNSaISt6threadEC1Ev,_ZNSaISt6threadEC2Ev
	.section	.text._ZN9__gnu_cxx13new_allocatorISt6threadED2Ev,"axG",@progbits,_ZN9__gnu_cxx13new_allocatorISt6threadED5Ev,comdat
	.align 2
	.weak	_ZN9__gnu_cxx13new_allocatorISt6threadED2Ev
	.type	_ZN9__gnu_cxx13new_allocatorISt6threadED2Ev, @function
_ZN9__gnu_cxx13new_allocatorISt6threadED2Ev:
.LFB9448:
	.cfi_startproc
	pushq	%rbp
	.cfi_def_cfa_offset 16
	.cfi_offset 6, -16
	movq	%rsp, %rbp
	.cfi_def_cfa_register 6
	movq	%rdi, -8(%rbp)
	nop
	popq	%rbp
	.cfi_def_cfa 7, 8
	ret
	.cfi_endproc
.LFE9448:
	.size	_ZN9__gnu_cxx13new_allocatorISt6threadED2Ev, .-_ZN9__gnu_cxx13new_allocatorISt6threadED2Ev
	.weak	_ZN9__gnu_cxx13new_allocatorISt6threadED1Ev
	.set	_ZN9__gnu_cxx13new_allocatorISt6threadED1Ev,_ZN9__gnu_cxx13new_allocatorISt6threadED2Ev
	.section	.text._ZNSt16allocator_traitsISaISt6threadEE10deallocateERS1_PS0_m,"axG",@progbits,_ZNSt16allocator_traitsISaISt6threadEE10deallocateERS1_PS0_m,comdat
	.weak	_ZNSt16allocator_traitsISaISt6threadEE10deallocateERS1_PS0_m
	.type	_ZNSt16allocator_traitsISaISt6threadEE10deallocateERS1_PS0_m, @function
_ZNSt16allocator_traitsISaISt6threadEE10deallocateERS1_PS0_m:
.LFB9450:
	.cfi_startproc
	pushq	%rbp
	.cfi_def_cfa_offset 16
	.cfi_offset 6, -16
	movq	%rsp, %rbp
	.cfi_def_cfa_register 6
	subq	$32, %rsp
	movq	%rdi, -8(%rbp)
	movq	%rsi, -16(%rbp)
	movq	%rdx, -24(%rbp)
	movq	-24(%rbp), %rdx
	movq	-16(%rbp), %rcx
	movq	-8(%rbp), %rax
	movq	%rcx, %rsi
	movq	%rax, %rdi
	call	_ZN9__gnu_cxx13new_allocatorISt6threadE10deallocateEPS1_m
	nop
	leave
	.cfi_def_cfa 7, 8
	ret
	.cfi_endproc
.LFE9450:
	.size	_ZNSt16allocator_traitsISaISt6threadEE10deallocateERS1_PS0_m, .-_ZNSt16allocator_traitsISaISt6threadEE10deallocateERS1_PS0_m
	.section	.text._ZSt11__addressofISt6threadEPT_RS1_,"axG",@progbits,_ZSt11__addressofISt6threadEPT_RS1_,comdat
	.weak	_ZSt11__addressofISt6threadEPT_RS1_
	.type	_ZSt11__addressofISt6threadEPT_RS1_, @function
_ZSt11__addressofISt6threadEPT_RS1_:
.LFB9452:
	.cfi_startproc
	pushq	%rbp
	.cfi_def_cfa_offset 16
	.cfi_offset 6, -16
	movq	%rsp, %rbp
	.cfi_def_cfa_register 6
	movq	%rdi, -8(%rbp)
	movq	-8(%rbp), %rax
	popq	%rbp
	.cfi_def_cfa 7, 8
	ret
	.cfi_endproc
.LFE9452:
	.size	_ZSt11__addressofISt6threadEPT_RS1_, .-_ZSt11__addressofISt6threadEPT_RS1_
	.section	.text._ZNSt12_Destroy_auxILb0EE9__destroyIPSt6threadEEvT_S4_,"axG",@progbits,_ZNSt12_Destroy_auxILb0EE9__destroyIPSt6threadEEvT_S4_,comdat
	.weak	_ZNSt12_Destroy_auxILb0EE9__destroyIPSt6threadEEvT_S4_
	.type	_ZNSt12_Destroy_auxILb0EE9__destroyIPSt6threadEEvT_S4_, @function
_ZNSt12_Destroy_auxILb0EE9__destroyIPSt6threadEEvT_S4_:
.LFB9451:
	.cfi_startproc
	pushq	%rbp
	.cfi_def_cfa_offset 16
	.cfi_offset 6, -16
	movq	%rsp, %rbp
	.cfi_def_cfa_register 6
	subq	$16, %rsp
	movq	%rdi, -8(%rbp)
	movq	%rsi, -16(%rbp)
.L293:
	movq	-8(%rbp), %rax
	cmpq	-16(%rbp), %rax
	je	.L294
	movq	-8(%rbp), %rax
	movq	%rax, %rdi
	call	_ZSt11__addressofISt6threadEPT_RS1_
	movq	%rax, %rdi
	call	_ZSt8_DestroyISt6threadEvPT_
	addq	$8, -8(%rbp)
	jmp	.L293
.L294:
	nop
	leave
	.cfi_def_cfa 7, 8
	ret
	.cfi_endproc
.LFE9451:
	.size	_ZNSt12_Destroy_auxILb0EE9__destroyIPSt6threadEEvT_S4_, .-_ZNSt12_Destroy_auxILb0EE9__destroyIPSt6threadEEvT_S4_
	.section	.text._ZNSt5tupleIJPNSt6thread6_StateESt14default_deleteIS1_EEEC2IS2_S4_Lb1EEEv,"axG",@progbits,_ZNSt5tupleIJPNSt6thread6_StateESt14default_deleteIS1_EEEC5IS2_S4_Lb1EEEv,comdat
	.align 2
	.weak	_ZNSt5tupleIJPNSt6thread6_StateESt14default_deleteIS1_EEEC2IS2_S4_Lb1EEEv
	.type	_ZNSt5tupleIJPNSt6thread6_StateESt14default_deleteIS1_EEEC2IS2_S4_Lb1EEEv, @function
_ZNSt5tupleIJPNSt6thread6_StateESt14default_deleteIS1_EEEC2IS2_S4_Lb1EEEv:
.LFB9531:
	.cfi_startproc
	pushq	%rbp
	.cfi_def_cfa_offset 16
	.cfi_offset 6, -16
	movq	%rsp, %rbp
	.cfi_def_cfa_register 6
	subq	$16, %rsp
	movq	%rdi, -8(%rbp)
	movq	-8(%rbp), %rax
	movq	%rax, %rdi
	call	_ZNSt11_Tuple_implILm0EJPNSt6thread6_StateESt14default_deleteIS1_EEEC2Ev
	nop
	leave
	.cfi_def_cfa 7, 8
	ret
	.cfi_endproc
.LFE9531:
	.size	_ZNSt5tupleIJPNSt6thread6_StateESt14default_deleteIS1_EEEC2IS2_S4_Lb1EEEv, .-_ZNSt5tupleIJPNSt6thread6_StateESt14default_deleteIS1_EEEC2IS2_S4_Lb1EEEv
	.weak	_ZNSt5tupleIJPNSt6thread6_StateESt14default_deleteIS1_EEEC1IS2_S4_Lb1EEEv
	.set	_ZNSt5tupleIJPNSt6thread6_StateESt14default_deleteIS1_EEEC1IS2_S4_Lb1EEEv,_ZNSt5tupleIJPNSt6thread6_StateESt14default_deleteIS1_EEEC2IS2_S4_Lb1EEEv
	.section	.text._ZSt12__get_helperILm0EPNSt6thread6_StateEJSt14default_deleteIS1_EEERT0_RSt11_Tuple_implIXT_EJS5_DpT1_EE,"axG",@progbits,_ZSt12__get_helperILm0EPNSt6thread6_StateEJSt14default_deleteIS1_EEERT0_RSt11_Tuple_implIXT_EJS5_DpT1_EE,comdat
	.weak	_ZSt12__get_helperILm0EPNSt6thread6_StateEJSt14default_deleteIS1_EEERT0_RSt11_Tuple_implIXT_EJS5_DpT1_EE
	.type	_ZSt12__get_helperILm0EPNSt6thread6_StateEJSt14default_deleteIS1_EEERT0_RSt11_Tuple_implIXT_EJS5_DpT1_EE, @function
_ZSt12__get_helperILm0EPNSt6thread6_StateEJSt14default_deleteIS1_EEERT0_RSt11_Tuple_implIXT_EJS5_DpT1_EE:
.LFB9533:
	.cfi_startproc
	pushq	%rbp
	.cfi_def_cfa_offset 16
	.cfi_offset 6, -16
	movq	%rsp, %rbp
	.cfi_def_cfa_register 6
	subq	$16, %rsp
	movq	%rdi, -8(%rbp)
	movq	-8(%rbp), %rax
	movq	%rax, %rdi
	call	_ZNSt11_Tuple_implILm0EJPNSt6thread6_StateESt14default_deleteIS1_EEE7_M_headERS5_
	leave
	.cfi_def_cfa 7, 8
	ret
	.cfi_endproc
.LFE9533:
	.size	_ZSt12__get_helperILm0EPNSt6thread6_StateEJSt14default_deleteIS1_EEERT0_RSt11_Tuple_implIXT_EJS5_DpT1_EE, .-_ZSt12__get_helperILm0EPNSt6thread6_StateEJSt14default_deleteIS1_EEERT0_RSt11_Tuple_implIXT_EJS5_DpT1_EE
	.section	.text._ZSt3getILm1EJPNSt6thread6_StateESt14default_deleteIS1_EEERNSt13tuple_elementIXT_ESt5tupleIJDpT0_EEE4typeERS9_,"axG",@progbits,_ZSt3getILm1EJPNSt6thread6_StateESt14default_deleteIS1_EEERNSt13tuple_elementIXT_ESt5tupleIJDpT0_EEE4typeERS9_,comdat
	.weak	_ZSt3getILm1EJPNSt6thread6_StateESt14default_deleteIS1_EEERNSt13tuple_elementIXT_ESt5tupleIJDpT0_EEE4typeERS9_
	.type	_ZSt3getILm1EJPNSt6thread6_StateESt14default_deleteIS1_EEERNSt13tuple_elementIXT_ESt5tupleIJDpT0_EEE4typeERS9_, @function
_ZSt3getILm1EJPNSt6thread6_StateESt14default_deleteIS1_EEERNSt13tuple_elementIXT_ESt5tupleIJDpT0_EEE4typeERS9_:
.LFB9534:
	.cfi_startproc
	pushq	%rbp
	.cfi_def_cfa_offset 16
	.cfi_offset 6, -16
	movq	%rsp, %rbp
	.cfi_def_cfa_register 6
	subq	$16, %rsp
	movq	%rdi, -8(%rbp)
	movq	-8(%rbp), %rax
	movq	%rax, %rdi
	call	_ZSt12__get_helperILm1ESt14default_deleteINSt6thread6_StateEEJEERT0_RSt11_Tuple_implIXT_EJS4_DpT1_EE
	leave
	.cfi_def_cfa 7, 8
	ret
	.cfi_endproc
.LFE9534:
	.size	_ZSt3getILm1EJPNSt6thread6_StateESt14default_deleteIS1_EEERNSt13tuple_elementIXT_ESt5tupleIJDpT0_EEE4typeERS9_, .-_ZSt3getILm1EJPNSt6thread6_StateESt14default_deleteIS1_EEERNSt13tuple_elementIXT_ESt5tupleIJDpT0_EEE4typeERS9_
	.section	.text._ZNKSt6vectorISt6threadSaIS0_EE8max_sizeEv,"axG",@progbits,_ZNKSt6vectorISt6threadSaIS0_EE8max_sizeEv,comdat
	.align 2
	.weak	_ZNKSt6vectorISt6threadSaIS0_EE8max_sizeEv
	.type	_ZNKSt6vectorISt6threadSaIS0_EE8max_sizeEv, @function
_ZNKSt6vectorISt6threadSaIS0_EE8max_sizeEv:
.LFB9539:
	.cfi_startproc
	pushq	%rbp
	.cfi_def_cfa_offset 16
	.cfi_offset 6, -16
	movq	%rsp, %rbp
	.cfi_def_cfa_register 6
	subq	$16, %rsp
	movq	%rdi, -8(%rbp)
	movq	-8(%rbp), %rax
	movq	%rax, %rdi
	call	_ZNKSt12_Vector_baseISt6threadSaIS0_EE19_M_get_Tp_allocatorEv
	movq	%rax, %rdi
	call	_ZNSt16allocator_traitsISaISt6threadEE8max_sizeERKS1_
	leave
	.cfi_def_cfa 7, 8
	ret
	.cfi_endproc
.LFE9539:
	.size	_ZNKSt6vectorISt6threadSaIS0_EE8max_sizeEv, .-_ZNKSt6vectorISt6threadSaIS0_EE8max_sizeEv
	.section	.text._ZNKSt6vectorISt6threadSaIS0_EE4sizeEv,"axG",@progbits,_ZNKSt6vectorISt6threadSaIS0_EE4sizeEv,comdat
	.align 2
	.weak	_ZNKSt6vectorISt6threadSaIS0_EE4sizeEv
	.type	_ZNKSt6vectorISt6threadSaIS0_EE4sizeEv, @function
_ZNKSt6vectorISt6threadSaIS0_EE4sizeEv:
.LFB9540:
	.cfi_startproc
	pushq	%rbp
	.cfi_def_cfa_offset 16
	.cfi_offset 6, -16
	movq	%rsp, %rbp
	.cfi_def_cfa_register 6
	movq	%rdi, -8(%rbp)
	movq	-8(%rbp), %rax
	movq	8(%rax), %rax
	movq	%rax, %rdx
	movq	-8(%rbp), %rax
	movq	(%rax), %rax
	subq	%rax, %rdx
	movq	%rdx, %rax
	sarq	$3, %rax
	popq	%rbp
	.cfi_def_cfa 7, 8
	ret
	.cfi_endproc
.LFE9540:
	.size	_ZNKSt6vectorISt6threadSaIS0_EE4sizeEv, .-_ZNKSt6vectorISt6threadSaIS0_EE4sizeEv
	.section	.text._ZNSt16allocator_traitsISaISt6threadEE8allocateERS1_m,"axG",@progbits,_ZNSt16allocator_traitsISaISt6threadEE8allocateERS1_m,comdat
	.weak	_ZNSt16allocator_traitsISaISt6threadEE8allocateERS1_m
	.type	_ZNSt16allocator_traitsISaISt6threadEE8allocateERS1_m, @function
_ZNSt16allocator_traitsISaISt6threadEE8allocateERS1_m:
.LFB9541:
	.cfi_startproc
	pushq	%rbp
	.cfi_def_cfa_offset 16
	.cfi_offset 6, -16
	movq	%rsp, %rbp
	.cfi_def_cfa_register 6
	subq	$16, %rsp
	movq	%rdi, -8(%rbp)
	movq	%rsi, -16(%rbp)
	movq	-16(%rbp), %rcx
	movq	-8(%rbp), %rax
	movl	$0, %edx
	movq	%rcx, %rsi
	movq	%rax, %rdi
	call	_ZN9__gnu_cxx13new_allocatorISt6threadE8allocateEmPKv
	leave
	.cfi_def_cfa 7, 8
	ret
	.cfi_endproc
.LFE9541:
	.size	_ZNSt16allocator_traitsISaISt6threadEE8allocateERS1_m, .-_ZNSt16allocator_traitsISaISt6threadEE8allocateERS1_m
	.section	.text._ZSt32__make_move_if_noexcept_iteratorISt6threadSt13move_iteratorIPS0_EET0_PT_,"axG",@progbits,_ZSt32__make_move_if_noexcept_iteratorISt6threadSt13move_iteratorIPS0_EET0_PT_,comdat
	.weak	_ZSt32__make_move_if_noexcept_iteratorISt6threadSt13move_iteratorIPS0_EET0_PT_
	.type	_ZSt32__make_move_if_noexcept_iteratorISt6threadSt13move_iteratorIPS0_EET0_PT_, @function
_ZSt32__make_move_if_noexcept_iteratorISt6threadSt13move_iteratorIPS0_EET0_PT_:
.LFB9542:
	.cfi_startproc
	pushq	%rbp
	.cfi_def_cfa_offset 16
	.cfi_offset 6, -16
	movq	%rsp, %rbp
	.cfi_def_cfa_register 6
	subq	$32, %rsp
	movq	%rdi, -24(%rbp)
	movq	%fs:40, %rax
	movq	%rax, -8(%rbp)
	xorl	%eax, %eax
	movq	-24(%rbp), %rdx
	leaq	-16(%rbp), %rax
	movq	%rdx, %rsi
	movq	%rax, %rdi
	call	_ZNSt13move_iteratorIPSt6threadEC1ES1_
	movq	-16(%rbp), %rax
	movq	-8(%rbp), %rcx
	xorq	%fs:40, %rcx
	je	.L308
	call	__stack_chk_fail@PLT
.L308:
	leave
	.cfi_def_cfa 7, 8
	ret
	.cfi_endproc
.LFE9542:
	.size	_ZSt32__make_move_if_noexcept_iteratorISt6threadSt13move_iteratorIPS0_EET0_PT_, .-_ZSt32__make_move_if_noexcept_iteratorISt6threadSt13move_iteratorIPS0_EET0_PT_
	.section	.text._ZSt22__uninitialized_copy_aISt13move_iteratorIPSt6threadES2_S1_ET0_T_S5_S4_RSaIT1_E,"axG",@progbits,_ZSt22__uninitialized_copy_aISt13move_iteratorIPSt6threadES2_S1_ET0_T_S5_S4_RSaIT1_E,comdat
	.weak	_ZSt22__uninitialized_copy_aISt13move_iteratorIPSt6threadES2_S1_ET0_T_S5_S4_RSaIT1_E
	.type	_ZSt22__uninitialized_copy_aISt13move_iteratorIPSt6threadES2_S1_ET0_T_S5_S4_RSaIT1_E, @function
_ZSt22__uninitialized_copy_aISt13move_iteratorIPSt6threadES2_S1_ET0_T_S5_S4_RSaIT1_E:
.LFB9543:
	.cfi_startproc
	pushq	%rbp
	.cfi_def_cfa_offset 16
	.cfi_offset 6, -16
	movq	%rsp, %rbp
	.cfi_def_cfa_register 6
	subq	$32, %rsp
	movq	%rdi, -8(%rbp)
	movq	%rsi, -16(%rbp)
	movq	%rdx, -24(%rbp)
	movq	%rcx, -32(%rbp)
	movq	-24(%rbp), %rdx
	movq	-16(%rbp), %rcx
	movq	-8(%rbp), %rax
	movq	%rcx, %rsi
	movq	%rax, %rdi
	call	_ZSt18uninitialized_copyISt13move_iteratorIPSt6threadES2_ET0_T_S5_S4_
	leave
	.cfi_def_cfa 7, 8
	ret
	.cfi_endproc
.LFE9543:
	.size	_ZSt22__uninitialized_copy_aISt13move_iteratorIPSt6threadES2_S1_ET0_T_S5_S4_RSaIT1_E, .-_ZSt22__uninitialized_copy_aISt13move_iteratorIPSt6threadES2_S1_ET0_T_S5_S4_RSaIT1_E
	.section	.text._ZN9__gnu_cxx13new_allocatorISt6threadE7destroyIS1_EEvPT_,"axG",@progbits,_ZN9__gnu_cxx13new_allocatorISt6threadE7destroyIS1_EEvPT_,comdat
	.align 2
	.weak	_ZN9__gnu_cxx13new_allocatorISt6threadE7destroyIS1_EEvPT_
	.type	_ZN9__gnu_cxx13new_allocatorISt6threadE7destroyIS1_EEvPT_, @function
_ZN9__gnu_cxx13new_allocatorISt6threadE7destroyIS1_EEvPT_:
.LFB9544:
	.cfi_startproc
	pushq	%rbp
	.cfi_def_cfa_offset 16
	.cfi_offset 6, -16
	movq	%rsp, %rbp
	.cfi_def_cfa_register 6
	subq	$16, %rsp
	movq	%rdi, -8(%rbp)
	movq	%rsi, -16(%rbp)
	movq	-16(%rbp), %rax
	movq	%rax, %rdi
	call	_ZNSt6threadD1Ev
	nop
	leave
	.cfi_def_cfa 7, 8
	ret
	.cfi_endproc
.LFE9544:
	.size	_ZN9__gnu_cxx13new_allocatorISt6threadE7destroyIS1_EEvPT_, .-_ZN9__gnu_cxx13new_allocatorISt6threadE7destroyIS1_EEvPT_
	.section	.text._ZN9__gnu_cxx13new_allocatorISt6threadEC2Ev,"axG",@progbits,_ZN9__gnu_cxx13new_allocatorISt6threadEC5Ev,comdat
	.align 2
	.weak	_ZN9__gnu_cxx13new_allocatorISt6threadEC2Ev
	.type	_ZN9__gnu_cxx13new_allocatorISt6threadEC2Ev, @function
_ZN9__gnu_cxx13new_allocatorISt6threadEC2Ev:
.LFB9546:
	.cfi_startproc
	pushq	%rbp
	.cfi_def_cfa_offset 16
	.cfi_offset 6, -16
	movq	%rsp, %rbp
	.cfi_def_cfa_register 6
	movq	%rdi, -8(%rbp)
	nop
	popq	%rbp
	.cfi_def_cfa 7, 8
	ret
	.cfi_endproc
.LFE9546:
	.size	_ZN9__gnu_cxx13new_allocatorISt6threadEC2Ev, .-_ZN9__gnu_cxx13new_allocatorISt6threadEC2Ev
	.weak	_ZN9__gnu_cxx13new_allocatorISt6threadEC1Ev
	.set	_ZN9__gnu_cxx13new_allocatorISt6threadEC1Ev,_ZN9__gnu_cxx13new_allocatorISt6threadEC2Ev
	.section	.text._ZN9__gnu_cxx13new_allocatorISt6threadE10deallocateEPS1_m,"axG",@progbits,_ZN9__gnu_cxx13new_allocatorISt6threadE10deallocateEPS1_m,comdat
	.align 2
	.weak	_ZN9__gnu_cxx13new_allocatorISt6threadE10deallocateEPS1_m
	.type	_ZN9__gnu_cxx13new_allocatorISt6threadE10deallocateEPS1_m, @function
_ZN9__gnu_cxx13new_allocatorISt6threadE10deallocateEPS1_m:
.LFB9548:
	.cfi_startproc
	pushq	%rbp
	.cfi_def_cfa_offset 16
	.cfi_offset 6, -16
	movq	%rsp, %rbp
	.cfi_def_cfa_register 6
	subq	$32, %rsp
	movq	%rdi, -8(%rbp)
	movq	%rsi, -16(%rbp)
	movq	%rdx, -24(%rbp)
	movq	-16(%rbp), %rax
	movq	%rax, %rdi
	call	_ZdlPv@PLT
	nop
	leave
	.cfi_def_cfa 7, 8
	ret
	.cfi_endproc
.LFE9548:
	.size	_ZN9__gnu_cxx13new_allocatorISt6threadE10deallocateEPS1_m, .-_ZN9__gnu_cxx13new_allocatorISt6threadE10deallocateEPS1_m
	.section	.text._ZSt8_DestroyISt6threadEvPT_,"axG",@progbits,_ZSt8_DestroyISt6threadEvPT_,comdat
	.weak	_ZSt8_DestroyISt6threadEvPT_
	.type	_ZSt8_DestroyISt6threadEvPT_, @function
_ZSt8_DestroyISt6threadEvPT_:
.LFB9549:
	.cfi_startproc
	pushq	%rbp
	.cfi_def_cfa_offset 16
	.cfi_offset 6, -16
	movq	%rsp, %rbp
	.cfi_def_cfa_register 6
	subq	$16, %rsp
	movq	%rdi, -8(%rbp)
	movq	-8(%rbp), %rax
	movq	%rax, %rdi
	call	_ZNSt6threadD1Ev
	nop
	leave
	.cfi_def_cfa 7, 8
	ret
	.cfi_endproc
.LFE9549:
	.size	_ZSt8_DestroyISt6threadEvPT_, .-_ZSt8_DestroyISt6threadEvPT_
	.section	.text._ZNSt11_Tuple_implILm0EJPNSt6thread6_StateESt14default_deleteIS1_EEEC2Ev,"axG",@progbits,_ZNSt11_Tuple_implILm0EJPNSt6thread6_StateESt14default_deleteIS1_EEEC5Ev,comdat
	.align 2
	.weak	_ZNSt11_Tuple_implILm0EJPNSt6thread6_StateESt14default_deleteIS1_EEEC2Ev
	.type	_ZNSt11_Tuple_implILm0EJPNSt6thread6_StateESt14default_deleteIS1_EEEC2Ev, @function
_ZNSt11_Tuple_implILm0EJPNSt6thread6_StateESt14default_deleteIS1_EEEC2Ev:
.LFB9638:
	.cfi_startproc
	pushq	%rbp
	.cfi_def_cfa_offset 16
	.cfi_offset 6, -16
	movq	%rsp, %rbp
	.cfi_def_cfa_register 6
	subq	$16, %rsp
	movq	%rdi, -8(%rbp)
	movq	-8(%rbp), %rax
	movq	%rax, %rdi
	call	_ZNSt11_Tuple_implILm1EJSt14default_deleteINSt6thread6_StateEEEEC2Ev
	movq	-8(%rbp), %rax
	movq	%rax, %rdi
	call	_ZNSt10_Head_baseILm0EPNSt6thread6_StateELb0EEC2Ev
	nop
	leave
	.cfi_def_cfa 7, 8
	ret
	.cfi_endproc
.LFE9638:
	.size	_ZNSt11_Tuple_implILm0EJPNSt6thread6_StateESt14default_deleteIS1_EEEC2Ev, .-_ZNSt11_Tuple_implILm0EJPNSt6thread6_StateESt14default_deleteIS1_EEEC2Ev
	.weak	_ZNSt11_Tuple_implILm0EJPNSt6thread6_StateESt14default_deleteIS1_EEEC1Ev
	.set	_ZNSt11_Tuple_implILm0EJPNSt6thread6_StateESt14default_deleteIS1_EEEC1Ev,_ZNSt11_Tuple_implILm0EJPNSt6thread6_StateESt14default_deleteIS1_EEEC2Ev
	.section	.text._ZNSt11_Tuple_implILm0EJPNSt6thread6_StateESt14default_deleteIS1_EEE7_M_headERS5_,"axG",@progbits,_ZNSt11_Tuple_implILm0EJPNSt6thread6_StateESt14default_deleteIS1_EEE7_M_headERS5_,comdat
	.weak	_ZNSt11_Tuple_implILm0EJPNSt6thread6_StateESt14default_deleteIS1_EEE7_M_headERS5_
	.type	_ZNSt11_Tuple_implILm0EJPNSt6thread6_StateESt14default_deleteIS1_EEE7_M_headERS5_, @function
_ZNSt11_Tuple_implILm0EJPNSt6thread6_StateESt14default_deleteIS1_EEE7_M_headERS5_:
.LFB9640:
	.cfi_startproc
	pushq	%rbp
	.cfi_def_cfa_offset 16
	.cfi_offset 6, -16
	movq	%rsp, %rbp
	.cfi_def_cfa_register 6
	subq	$16, %rsp
	movq	%rdi, -8(%rbp)
	movq	-8(%rbp), %rax
	movq	%rax, %rdi
	call	_ZNSt10_Head_baseILm0EPNSt6thread6_StateELb0EE7_M_headERS3_
	leave
	.cfi_def_cfa 7, 8
	ret
	.cfi_endproc
.LFE9640:
	.size	_ZNSt11_Tuple_implILm0EJPNSt6thread6_StateESt14default_deleteIS1_EEE7_M_headERS5_, .-_ZNSt11_Tuple_implILm0EJPNSt6thread6_StateESt14default_deleteIS1_EEE7_M_headERS5_
	.section	.text._ZSt12__get_helperILm1ESt14default_deleteINSt6thread6_StateEEJEERT0_RSt11_Tuple_implIXT_EJS4_DpT1_EE,"axG",@progbits,_ZSt12__get_helperILm1ESt14default_deleteINSt6thread6_StateEEJEERT0_RSt11_Tuple_implIXT_EJS4_DpT1_EE,comdat
	.weak	_ZSt12__get_helperILm1ESt14default_deleteINSt6thread6_StateEEJEERT0_RSt11_Tuple_implIXT_EJS4_DpT1_EE
	.type	_ZSt12__get_helperILm1ESt14default_deleteINSt6thread6_StateEEJEERT0_RSt11_Tuple_implIXT_EJS4_DpT1_EE, @function
_ZSt12__get_helperILm1ESt14default_deleteINSt6thread6_StateEEJEERT0_RSt11_Tuple_implIXT_EJS4_DpT1_EE:
.LFB9641:
	.cfi_startproc
	pushq	%rbp
	.cfi_def_cfa_offset 16
	.cfi_offset 6, -16
	movq	%rsp, %rbp
	.cfi_def_cfa_register 6
	subq	$16, %rsp
	movq	%rdi, -8(%rbp)
	movq	-8(%rbp), %rax
	movq	%rax, %rdi
	call	_ZNSt11_Tuple_implILm1EJSt14default_deleteINSt6thread6_StateEEEE7_M_headERS4_
	leave
	.cfi_def_cfa 7, 8
	ret
	.cfi_endproc
.LFE9641:
	.size	_ZSt12__get_helperILm1ESt14default_deleteINSt6thread6_StateEEJEERT0_RSt11_Tuple_implIXT_EJS4_DpT1_EE, .-_ZSt12__get_helperILm1ESt14default_deleteINSt6thread6_StateEEJEERT0_RSt11_Tuple_implIXT_EJS4_DpT1_EE
	.section	.text._ZNSt16allocator_traitsISaISt6threadEE8max_sizeERKS1_,"axG",@progbits,_ZNSt16allocator_traitsISaISt6threadEE8max_sizeERKS1_,comdat
	.weak	_ZNSt16allocator_traitsISaISt6threadEE8max_sizeERKS1_
	.type	_ZNSt16allocator_traitsISaISt6threadEE8max_sizeERKS1_, @function
_ZNSt16allocator_traitsISaISt6threadEE8max_sizeERKS1_:
.LFB9649:
	.cfi_startproc
	pushq	%rbp
	.cfi_def_cfa_offset 16
	.cfi_offset 6, -16
	movq	%rsp, %rbp
	.cfi_def_cfa_register 6
	subq	$16, %rsp
	movq	%rdi, -8(%rbp)
	movq	-8(%rbp), %rax
	movq	%rax, %rdi
	call	_ZNK9__gnu_cxx13new_allocatorISt6threadE8max_sizeEv
	leave
	.cfi_def_cfa 7, 8
	ret
	.cfi_endproc
.LFE9649:
	.size	_ZNSt16allocator_traitsISaISt6threadEE8max_sizeERKS1_, .-_ZNSt16allocator_traitsISaISt6threadEE8max_sizeERKS1_
	.section	.text._ZNKSt12_Vector_baseISt6threadSaIS0_EE19_M_get_Tp_allocatorEv,"axG",@progbits,_ZNKSt12_Vector_baseISt6threadSaIS0_EE19_M_get_Tp_allocatorEv,comdat
	.align 2
	.weak	_ZNKSt12_Vector_baseISt6threadSaIS0_EE19_M_get_Tp_allocatorEv
	.type	_ZNKSt12_Vector_baseISt6threadSaIS0_EE19_M_get_Tp_allocatorEv, @function
_ZNKSt12_Vector_baseISt6threadSaIS0_EE19_M_get_Tp_allocatorEv:
.LFB9650:
	.cfi_startproc
	pushq	%rbp
	.cfi_def_cfa_offset 16
	.cfi_offset 6, -16
	movq	%rsp, %rbp
	.cfi_def_cfa_register 6
	movq	%rdi, -8(%rbp)
	movq	-8(%rbp), %rax
	popq	%rbp
	.cfi_def_cfa 7, 8
	ret
	.cfi_endproc
.LFE9650:
	.size	_ZNKSt12_Vector_baseISt6threadSaIS0_EE19_M_get_Tp_allocatorEv, .-_ZNKSt12_Vector_baseISt6threadSaIS0_EE19_M_get_Tp_allocatorEv
	.section	.text._ZN9__gnu_cxx13new_allocatorISt6threadE8allocateEmPKv,"axG",@progbits,_ZN9__gnu_cxx13new_allocatorISt6threadE8allocateEmPKv,comdat
	.align 2
	.weak	_ZN9__gnu_cxx13new_allocatorISt6threadE8allocateEmPKv
	.type	_ZN9__gnu_cxx13new_allocatorISt6threadE8allocateEmPKv, @function
_ZN9__gnu_cxx13new_allocatorISt6threadE8allocateEmPKv:
.LFB9651:
	.cfi_startproc
	pushq	%rbp
	.cfi_def_cfa_offset 16
	.cfi_offset 6, -16
	movq	%rsp, %rbp
	.cfi_def_cfa_register 6
	subq	$32, %rsp
	movq	%rdi, -8(%rbp)
	movq	%rsi, -16(%rbp)
	movq	%rdx, -24(%rbp)
	movq	-8(%rbp), %rax
	movq	%rax, %rdi
	call	_ZNK9__gnu_cxx13new_allocatorISt6threadE8max_sizeEv
	cmpq	%rax, -16(%rbp)
	seta	%al
	testb	%al, %al
	je	.L325
	call	_ZSt17__throw_bad_allocv@PLT
.L325:
	movq	-16(%rbp), %rax
	salq	$3, %rax
	movq	%rax, %rdi
	call	_Znwm@PLT
	leave
	.cfi_def_cfa 7, 8
	ret
	.cfi_endproc
.LFE9651:
	.size	_ZN9__gnu_cxx13new_allocatorISt6threadE8allocateEmPKv, .-_ZN9__gnu_cxx13new_allocatorISt6threadE8allocateEmPKv
	.section	.text._ZNSt13move_iteratorIPSt6threadEC2ES1_,"axG",@progbits,_ZNSt13move_iteratorIPSt6threadEC5ES1_,comdat
	.align 2
	.weak	_ZNSt13move_iteratorIPSt6threadEC2ES1_
	.type	_ZNSt13move_iteratorIPSt6threadEC2ES1_, @function
_ZNSt13move_iteratorIPSt6threadEC2ES1_:
.LFB9653:
	.cfi_startproc
	pushq	%rbp
	.cfi_def_cfa_offset 16
	.cfi_offset 6, -16
	movq	%rsp, %rbp
	.cfi_def_cfa_register 6
	movq	%rdi, -8(%rbp)
	movq	%rsi, -16(%rbp)
	movq	-8(%rbp), %rax
	movq	-16(%rbp), %rdx
	movq	%rdx, (%rax)
	nop
	popq	%rbp
	.cfi_def_cfa 7, 8
	ret
	.cfi_endproc
.LFE9653:
	.size	_ZNSt13move_iteratorIPSt6threadEC2ES1_, .-_ZNSt13move_iteratorIPSt6threadEC2ES1_
	.weak	_ZNSt13move_iteratorIPSt6threadEC1ES1_
	.set	_ZNSt13move_iteratorIPSt6threadEC1ES1_,_ZNSt13move_iteratorIPSt6threadEC2ES1_
	.section	.text._ZSt18uninitialized_copyISt13move_iteratorIPSt6threadES2_ET0_T_S5_S4_,"axG",@progbits,_ZSt18uninitialized_copyISt13move_iteratorIPSt6threadES2_ET0_T_S5_S4_,comdat
	.weak	_ZSt18uninitialized_copyISt13move_iteratorIPSt6threadES2_ET0_T_S5_S4_
	.type	_ZSt18uninitialized_copyISt13move_iteratorIPSt6threadES2_ET0_T_S5_S4_, @function
_ZSt18uninitialized_copyISt13move_iteratorIPSt6threadES2_ET0_T_S5_S4_:
.LFB9655:
	.cfi_startproc
	pushq	%rbp
	.cfi_def_cfa_offset 16
	.cfi_offset 6, -16
	movq	%rsp, %rbp
	.cfi_def_cfa_register 6
	subq	$48, %rsp
	movq	%rdi, -24(%rbp)
	movq	%rsi, -32(%rbp)
	movq	%rdx, -40(%rbp)
	movb	$1, -1(%rbp)
	movq	-40(%rbp), %rdx
	movq	-32(%rbp), %rcx
	movq	-24(%rbp), %rax
	movq	%rcx, %rsi
	movq	%rax, %rdi
	call	_ZNSt20__uninitialized_copyILb0EE13__uninit_copyISt13move_iteratorIPSt6threadES4_EET0_T_S7_S6_
	leave
	.cfi_def_cfa 7, 8
	ret
	.cfi_endproc
.LFE9655:
	.size	_ZSt18uninitialized_copyISt13move_iteratorIPSt6threadES2_ET0_T_S5_S4_, .-_ZSt18uninitialized_copyISt13move_iteratorIPSt6threadES2_ET0_T_S5_S4_
	.section	.text._ZNSt11_Tuple_implILm1EJSt14default_deleteINSt6thread6_StateEEEEC2Ev,"axG",@progbits,_ZNSt11_Tuple_implILm1EJSt14default_deleteINSt6thread6_StateEEEEC5Ev,comdat
	.align 2
	.weak	_ZNSt11_Tuple_implILm1EJSt14default_deleteINSt6thread6_StateEEEEC2Ev
	.type	_ZNSt11_Tuple_implILm1EJSt14default_deleteINSt6thread6_StateEEEEC2Ev, @function
_ZNSt11_Tuple_implILm1EJSt14default_deleteINSt6thread6_StateEEEEC2Ev:
.LFB9712:
	.cfi_startproc
	pushq	%rbp
	.cfi_def_cfa_offset 16
	.cfi_offset 6, -16
	movq	%rsp, %rbp
	.cfi_def_cfa_register 6
	subq	$16, %rsp
	movq	%rdi, -8(%rbp)
	movq	-8(%rbp), %rax
	movq	%rax, %rdi
	call	_ZNSt10_Head_baseILm1ESt14default_deleteINSt6thread6_StateEELb1EEC2Ev
	nop
	leave
	.cfi_def_cfa 7, 8
	ret
	.cfi_endproc
.LFE9712:
	.size	_ZNSt11_Tuple_implILm1EJSt14default_deleteINSt6thread6_StateEEEEC2Ev, .-_ZNSt11_Tuple_implILm1EJSt14default_deleteINSt6thread6_StateEEEEC2Ev
	.weak	_ZNSt11_Tuple_implILm1EJSt14default_deleteINSt6thread6_StateEEEEC1Ev
	.set	_ZNSt11_Tuple_implILm1EJSt14default_deleteINSt6thread6_StateEEEEC1Ev,_ZNSt11_Tuple_implILm1EJSt14default_deleteINSt6thread6_StateEEEEC2Ev
	.section	.text._ZNSt10_Head_baseILm0EPNSt6thread6_StateELb0EEC2Ev,"axG",@progbits,_ZNSt10_Head_baseILm0EPNSt6thread6_StateELb0EEC5Ev,comdat
	.align 2
	.weak	_ZNSt10_Head_baseILm0EPNSt6thread6_StateELb0EEC2Ev
	.type	_ZNSt10_Head_baseILm0EPNSt6thread6_StateELb0EEC2Ev, @function
_ZNSt10_Head_baseILm0EPNSt6thread6_StateELb0EEC2Ev:
.LFB9715:
	.cfi_startproc
	pushq	%rbp
	.cfi_def_cfa_offset 16
	.cfi_offset 6, -16
	movq	%rsp, %rbp
	.cfi_def_cfa_register 6
	movq	%rdi, -8(%rbp)
	movq	-8(%rbp), %rax
	movq	$0, (%rax)
	nop
	popq	%rbp
	.cfi_def_cfa 7, 8
	ret
	.cfi_endproc
.LFE9715:
	.size	_ZNSt10_Head_baseILm0EPNSt6thread6_StateELb0EEC2Ev, .-_ZNSt10_Head_baseILm0EPNSt6thread6_StateELb0EEC2Ev
	.weak	_ZNSt10_Head_baseILm0EPNSt6thread6_StateELb0EEC1Ev
	.set	_ZNSt10_Head_baseILm0EPNSt6thread6_StateELb0EEC1Ev,_ZNSt10_Head_baseILm0EPNSt6thread6_StateELb0EEC2Ev
	.section	.text._ZNSt10_Head_baseILm0EPNSt6thread6_StateELb0EE7_M_headERS3_,"axG",@progbits,_ZNSt10_Head_baseILm0EPNSt6thread6_StateELb0EE7_M_headERS3_,comdat
	.weak	_ZNSt10_Head_baseILm0EPNSt6thread6_StateELb0EE7_M_headERS3_
	.type	_ZNSt10_Head_baseILm0EPNSt6thread6_StateELb0EE7_M_headERS3_, @function
_ZNSt10_Head_baseILm0EPNSt6thread6_StateELb0EE7_M_headERS3_:
.LFB9717:
	.cfi_startproc
	pushq	%rbp
	.cfi_def_cfa_offset 16
	.cfi_offset 6, -16
	movq	%rsp, %rbp
	.cfi_def_cfa_register 6
	movq	%rdi, -8(%rbp)
	movq	-8(%rbp), %rax
	popq	%rbp
	.cfi_def_cfa 7, 8
	ret
	.cfi_endproc
.LFE9717:
	.size	_ZNSt10_Head_baseILm0EPNSt6thread6_StateELb0EE7_M_headERS3_, .-_ZNSt10_Head_baseILm0EPNSt6thread6_StateELb0EE7_M_headERS3_
	.section	.text._ZNSt11_Tuple_implILm1EJSt14default_deleteINSt6thread6_StateEEEE7_M_headERS4_,"axG",@progbits,_ZNSt11_Tuple_implILm1EJSt14default_deleteINSt6thread6_StateEEEE7_M_headERS4_,comdat
	.weak	_ZNSt11_Tuple_implILm1EJSt14default_deleteINSt6thread6_StateEEEE7_M_headERS4_
	.type	_ZNSt11_Tuple_implILm1EJSt14default_deleteINSt6thread6_StateEEEE7_M_headERS4_, @function
_ZNSt11_Tuple_implILm1EJSt14default_deleteINSt6thread6_StateEEEE7_M_headERS4_:
.LFB9718:
	.cfi_startproc
	pushq	%rbp
	.cfi_def_cfa_offset 16
	.cfi_offset 6, -16
	movq	%rsp, %rbp
	.cfi_def_cfa_register 6
	subq	$16, %rsp
	movq	%rdi, -8(%rbp)
	movq	-8(%rbp), %rax
	movq	%rax, %rdi
	call	_ZNSt10_Head_baseILm1ESt14default_deleteINSt6thread6_StateEELb1EE7_M_headERS4_
	leave
	.cfi_def_cfa 7, 8
	ret
	.cfi_endproc
.LFE9718:
	.size	_ZNSt11_Tuple_implILm1EJSt14default_deleteINSt6thread6_StateEEEE7_M_headERS4_, .-_ZNSt11_Tuple_implILm1EJSt14default_deleteINSt6thread6_StateEEEE7_M_headERS4_
	.section	.text._ZNK9__gnu_cxx13new_allocatorISt6threadE8max_sizeEv,"axG",@progbits,_ZNK9__gnu_cxx13new_allocatorISt6threadE8max_sizeEv,comdat
	.align 2
	.weak	_ZNK9__gnu_cxx13new_allocatorISt6threadE8max_sizeEv
	.type	_ZNK9__gnu_cxx13new_allocatorISt6threadE8max_sizeEv, @function
_ZNK9__gnu_cxx13new_allocatorISt6threadE8max_sizeEv:
.LFB9723:
	.cfi_startproc
	pushq	%rbp
	.cfi_def_cfa_offset 16
	.cfi_offset 6, -16
	movq	%rsp, %rbp
	.cfi_def_cfa_register 6
	movq	%rdi, -8(%rbp)
	movabsq	$2305843009213693951, %rax
	popq	%rbp
	.cfi_def_cfa 7, 8
	ret
	.cfi_endproc
.LFE9723:
	.size	_ZNK9__gnu_cxx13new_allocatorISt6threadE8max_sizeEv, .-_ZNK9__gnu_cxx13new_allocatorISt6threadE8max_sizeEv
	.section	.text._ZNSt20__uninitialized_copyILb0EE13__uninit_copyISt13move_iteratorIPSt6threadES4_EET0_T_S7_S6_,"axG",@progbits,_ZNSt20__uninitialized_copyILb0EE13__uninit_copyISt13move_iteratorIPSt6threadES4_EET0_T_S7_S6_,comdat
	.weak	_ZNSt20__uninitialized_copyILb0EE13__uninit_copyISt13move_iteratorIPSt6threadES4_EET0_T_S7_S6_
	.type	_ZNSt20__uninitialized_copyILb0EE13__uninit_copyISt13move_iteratorIPSt6threadES4_EET0_T_S7_S6_, @function
_ZNSt20__uninitialized_copyILb0EE13__uninit_copyISt13move_iteratorIPSt6threadES4_EET0_T_S7_S6_:
.LFB9724:
	.cfi_startproc
	.cfi_personality 0x9b,DW.ref.__gxx_personality_v0
	.cfi_lsda 0x1b,.LLSDA9724
	pushq	%rbp
	.cfi_def_cfa_offset 16
	.cfi_offset 6, -16
	movq	%rsp, %rbp
	.cfi_def_cfa_register 6
	pushq	%rbx
	subq	$56, %rsp
	.cfi_offset 3, -24
	movq	%rdi, -40(%rbp)
	movq	%rsi, -48(%rbp)
	movq	%rdx, -56(%rbp)
	movq	-56(%rbp), %rax
	movq	%rax, -24(%rbp)
.L340:
	leaq	-48(%rbp), %rdx
	leaq	-40(%rbp), %rax
	movq	%rdx, %rsi
	movq	%rax, %rdi
.LEHB22:
	call	_ZStneIPSt6threadEbRKSt13move_iteratorIT_ES6_
.LEHE22:
	testb	%al, %al
	je	.L339
	leaq	-40(%rbp), %rax
	movq	%rax, %rdi
	call	_ZNKSt13move_iteratorIPSt6threadEdeEv
	movq	%rax, %rbx
	movq	-24(%rbp), %rax
	movq	%rax, %rdi
	call	_ZSt11__addressofISt6threadEPT_RS1_
	movq	%rbx, %rsi
	movq	%rax, %rdi
	call	_ZSt10_ConstructISt6threadJS0_EEvPT_DpOT0_
	leaq	-40(%rbp), %rax
	movq	%rax, %rdi
	call	_ZNSt13move_iteratorIPSt6threadEppEv
	addq	$8, -24(%rbp)
	jmp	.L340
.L339:
	movq	-24(%rbp), %rax
	jmp	.L346
.L344:
	movq	%rax, %rdi
	call	__cxa_begin_catch@PLT
	movq	-24(%rbp), %rdx
	movq	-56(%rbp), %rax
	movq	%rdx, %rsi
	movq	%rax, %rdi
.LEHB23:
	call	_ZSt8_DestroyIPSt6threadEvT_S2_
	call	__cxa_rethrow@PLT
.LEHE23:
.L345:
	movq	%rax, %rbx
	call	__cxa_end_catch@PLT
	movq	%rbx, %rax
	movq	%rax, %rdi
.LEHB24:
	call	_Unwind_Resume@PLT
.LEHE24:
.L346:
	addq	$56, %rsp
	popq	%rbx
	popq	%rbp
	.cfi_def_cfa 7, 8
	ret
	.cfi_endproc
.LFE9724:
	.section	.gcc_except_table
	.align 4
.LLSDA9724:
	.byte	0xff
	.byte	0x9b
	.uleb128 .LLSDATT9724-.LLSDATTD9724
.LLSDATTD9724:
	.byte	0x1
	.uleb128 .LLSDACSE9724-.LLSDACSB9724
.LLSDACSB9724:
	.uleb128 .LEHB22-.LFB9724
	.uleb128 .LEHE22-.LEHB22
	.uleb128 .L344-.LFB9724
	.uleb128 0x1
	.uleb128 .LEHB23-.LFB9724
	.uleb128 .LEHE23-.LEHB23
	.uleb128 .L345-.LFB9724
	.uleb128 0
	.uleb128 .LEHB24-.LFB9724
	.uleb128 .LEHE24-.LEHB24
	.uleb128 0
	.uleb128 0
.LLSDACSE9724:
	.byte	0x1
	.byte	0
	.align 4
	.long	0

.LLSDATT9724:
	.section	.text._ZNSt20__uninitialized_copyILb0EE13__uninit_copyISt13move_iteratorIPSt6threadES4_EET0_T_S7_S6_,"axG",@progbits,_ZNSt20__uninitialized_copyILb0EE13__uninit_copyISt13move_iteratorIPSt6threadES4_EET0_T_S7_S6_,comdat
	.size	_ZNSt20__uninitialized_copyILb0EE13__uninit_copyISt13move_iteratorIPSt6threadES4_EET0_T_S7_S6_, .-_ZNSt20__uninitialized_copyILb0EE13__uninit_copyISt13move_iteratorIPSt6threadES4_EET0_T_S7_S6_
	.section	.text._ZNSt10_Head_baseILm1ESt14default_deleteINSt6thread6_StateEELb1EEC2Ev,"axG",@progbits,_ZNSt10_Head_baseILm1ESt14default_deleteINSt6thread6_StateEELb1EEC5Ev,comdat
	.align 2
	.weak	_ZNSt10_Head_baseILm1ESt14default_deleteINSt6thread6_StateEELb1EEC2Ev
	.type	_ZNSt10_Head_baseILm1ESt14default_deleteINSt6thread6_StateEELb1EEC2Ev, @function
_ZNSt10_Head_baseILm1ESt14default_deleteINSt6thread6_StateEELb1EEC2Ev:
.LFB9751:
	.cfi_startproc
	pushq	%rbp
	.cfi_def_cfa_offset 16
	.cfi_offset 6, -16
	movq	%rsp, %rbp
	.cfi_def_cfa_register 6
	movq	%rdi, -8(%rbp)
	nop
	popq	%rbp
	.cfi_def_cfa 7, 8
	ret
	.cfi_endproc
.LFE9751:
	.size	_ZNSt10_Head_baseILm1ESt14default_deleteINSt6thread6_StateEELb1EEC2Ev, .-_ZNSt10_Head_baseILm1ESt14default_deleteINSt6thread6_StateEELb1EEC2Ev
	.weak	_ZNSt10_Head_baseILm1ESt14default_deleteINSt6thread6_StateEELb1EEC1Ev
	.set	_ZNSt10_Head_baseILm1ESt14default_deleteINSt6thread6_StateEELb1EEC1Ev,_ZNSt10_Head_baseILm1ESt14default_deleteINSt6thread6_StateEELb1EEC2Ev
	.section	.text._ZNSt10_Head_baseILm1ESt14default_deleteINSt6thread6_StateEELb1EE7_M_headERS4_,"axG",@progbits,_ZNSt10_Head_baseILm1ESt14default_deleteINSt6thread6_StateEELb1EE7_M_headERS4_,comdat
	.weak	_ZNSt10_Head_baseILm1ESt14default_deleteINSt6thread6_StateEELb1EE7_M_headERS4_
	.type	_ZNSt10_Head_baseILm1ESt14default_deleteINSt6thread6_StateEELb1EE7_M_headERS4_, @function
_ZNSt10_Head_baseILm1ESt14default_deleteINSt6thread6_StateEELb1EE7_M_headERS4_:
.LFB9753:
	.cfi_startproc
	pushq	%rbp
	.cfi_def_cfa_offset 16
	.cfi_offset 6, -16
	movq	%rsp, %rbp
	.cfi_def_cfa_register 6
	movq	%rdi, -8(%rbp)
	movq	-8(%rbp), %rax
	popq	%rbp
	.cfi_def_cfa 7, 8
	ret
	.cfi_endproc
.LFE9753:
	.size	_ZNSt10_Head_baseILm1ESt14default_deleteINSt6thread6_StateEELb1EE7_M_headERS4_, .-_ZNSt10_Head_baseILm1ESt14default_deleteINSt6thread6_StateEELb1EE7_M_headERS4_
	.section	.text._ZStneIPSt6threadEbRKSt13move_iteratorIT_ES6_,"axG",@progbits,_ZStneIPSt6threadEbRKSt13move_iteratorIT_ES6_,comdat
	.weak	_ZStneIPSt6threadEbRKSt13move_iteratorIT_ES6_
	.type	_ZStneIPSt6threadEbRKSt13move_iteratorIT_ES6_, @function
_ZStneIPSt6threadEbRKSt13move_iteratorIT_ES6_:
.LFB9755:
	.cfi_startproc
	pushq	%rbp
	.cfi_def_cfa_offset 16
	.cfi_offset 6, -16
	movq	%rsp, %rbp
	.cfi_def_cfa_register 6
	subq	$16, %rsp
	movq	%rdi, -8(%rbp)
	movq	%rsi, -16(%rbp)
	movq	-16(%rbp), %rdx
	movq	-8(%rbp), %rax
	movq	%rdx, %rsi
	movq	%rax, %rdi
	call	_ZSteqIPSt6threadEbRKSt13move_iteratorIT_ES6_
	xorl	$1, %eax
	leave
	.cfi_def_cfa 7, 8
	ret
	.cfi_endproc
.LFE9755:
	.size	_ZStneIPSt6threadEbRKSt13move_iteratorIT_ES6_, .-_ZStneIPSt6threadEbRKSt13move_iteratorIT_ES6_
	.section	.text._ZNSt13move_iteratorIPSt6threadEppEv,"axG",@progbits,_ZNSt13move_iteratorIPSt6threadEppEv,comdat
	.align 2
	.weak	_ZNSt13move_iteratorIPSt6threadEppEv
	.type	_ZNSt13move_iteratorIPSt6threadEppEv, @function
_ZNSt13move_iteratorIPSt6threadEppEv:
.LFB9756:
	.cfi_startproc
	pushq	%rbp
	.cfi_def_cfa_offset 16
	.cfi_offset 6, -16
	movq	%rsp, %rbp
	.cfi_def_cfa_register 6
	movq	%rdi, -8(%rbp)
	movq	-8(%rbp), %rax
	movq	(%rax), %rax
	leaq	8(%rax), %rdx
	movq	-8(%rbp), %rax
	movq	%rdx, (%rax)
	movq	-8(%rbp), %rax
	popq	%rbp
	.cfi_def_cfa 7, 8
	ret
	.cfi_endproc
.LFE9756:
	.size	_ZNSt13move_iteratorIPSt6threadEppEv, .-_ZNSt13move_iteratorIPSt6threadEppEv
	.section	.text._ZNKSt13move_iteratorIPSt6threadEdeEv,"axG",@progbits,_ZNKSt13move_iteratorIPSt6threadEdeEv,comdat
	.align 2
	.weak	_ZNKSt13move_iteratorIPSt6threadEdeEv
	.type	_ZNKSt13move_iteratorIPSt6threadEdeEv, @function
_ZNKSt13move_iteratorIPSt6threadEdeEv:
.LFB9757:
	.cfi_startproc
	pushq	%rbp
	.cfi_def_cfa_offset 16
	.cfi_offset 6, -16
	movq	%rsp, %rbp
	.cfi_def_cfa_register 6
	movq	%rdi, -8(%rbp)
	movq	-8(%rbp), %rax
	movq	(%rax), %rax
	popq	%rbp
	.cfi_def_cfa 7, 8
	ret
	.cfi_endproc
.LFE9757:
	.size	_ZNKSt13move_iteratorIPSt6threadEdeEv, .-_ZNKSt13move_iteratorIPSt6threadEdeEv
	.section	.text._ZSt10_ConstructISt6threadJS0_EEvPT_DpOT0_,"axG",@progbits,_ZSt10_ConstructISt6threadJS0_EEvPT_DpOT0_,comdat
	.weak	_ZSt10_ConstructISt6threadJS0_EEvPT_DpOT0_
	.type	_ZSt10_ConstructISt6threadJS0_EEvPT_DpOT0_, @function
_ZSt10_ConstructISt6threadJS0_EEvPT_DpOT0_:
.LFB9758:
	.cfi_startproc
	pushq	%rbp
	.cfi_def_cfa_offset 16
	.cfi_offset 6, -16
	movq	%rsp, %rbp
	.cfi_def_cfa_register 6
	pushq	%rbx
	subq	$24, %rsp
	.cfi_offset 3, -24
	movq	%rdi, -24(%rbp)
	movq	%rsi, -32(%rbp)
	movq	-32(%rbp), %rax
	movq	%rax, %rdi
	call	_ZSt7forwardISt6threadEOT_RNSt16remove_referenceIS1_E4typeE
	movq	%rax, %rbx
	movq	-24(%rbp), %rax
	movq	%rax, %rsi
	movl	$8, %edi
	call	_ZnwmPv
	testq	%rax, %rax
	je	.L359
	movq	%rbx, %rsi
	movq	%rax, %rdi
	call	_ZNSt6threadC1EOS_
.L359:
	nop
	addq	$24, %rsp
	popq	%rbx
	popq	%rbp
	.cfi_def_cfa 7, 8
	ret
	.cfi_endproc
.LFE9758:
	.size	_ZSt10_ConstructISt6threadJS0_EEvPT_DpOT0_, .-_ZSt10_ConstructISt6threadJS0_EEvPT_DpOT0_
	.section	.text._ZSteqIPSt6threadEbRKSt13move_iteratorIT_ES6_,"axG",@progbits,_ZSteqIPSt6threadEbRKSt13move_iteratorIT_ES6_,comdat
	.weak	_ZSteqIPSt6threadEbRKSt13move_iteratorIT_ES6_
	.type	_ZSteqIPSt6threadEbRKSt13move_iteratorIT_ES6_, @function
_ZSteqIPSt6threadEbRKSt13move_iteratorIT_ES6_:
.LFB9764:
	.cfi_startproc
	pushq	%rbp
	.cfi_def_cfa_offset 16
	.cfi_offset 6, -16
	movq	%rsp, %rbp
	.cfi_def_cfa_register 6
	pushq	%rbx
	subq	$24, %rsp
	.cfi_offset 3, -24
	movq	%rdi, -24(%rbp)
	movq	%rsi, -32(%rbp)
	movq	-24(%rbp), %rax
	movq	%rax, %rdi
	call	_ZNKSt13move_iteratorIPSt6threadE4baseEv
	movq	%rax, %rbx
	movq	-32(%rbp), %rax
	movq	%rax, %rdi
	call	_ZNKSt13move_iteratorIPSt6threadE4baseEv
	cmpq	%rax, %rbx
	sete	%al
	addq	$24, %rsp
	popq	%rbx
	popq	%rbp
	.cfi_def_cfa 7, 8
	ret
	.cfi_endproc
.LFE9764:
	.size	_ZSteqIPSt6threadEbRKSt13move_iteratorIT_ES6_, .-_ZSteqIPSt6threadEbRKSt13move_iteratorIT_ES6_
	.section	.text._ZNKSt13move_iteratorIPSt6threadE4baseEv,"axG",@progbits,_ZNKSt13move_iteratorIPSt6threadE4baseEv,comdat
	.align 2
	.weak	_ZNKSt13move_iteratorIPSt6threadE4baseEv
	.type	_ZNKSt13move_iteratorIPSt6threadE4baseEv, @function
_ZNKSt13move_iteratorIPSt6threadE4baseEv:
.LFB9765:
	.cfi_startproc
	pushq	%rbp
	.cfi_def_cfa_offset 16
	.cfi_offset 6, -16
	movq	%rsp, %rbp
	.cfi_def_cfa_register 6
	movq	%rdi, -8(%rbp)
	movq	-8(%rbp), %rax
	movq	(%rax), %rax
	popq	%rbp
	.cfi_def_cfa 7, 8
	ret
	.cfi_endproc
.LFE9765:
	.size	_ZNKSt13move_iteratorIPSt6threadE4baseEv, .-_ZNKSt13move_iteratorIPSt6threadE4baseEv
	.weak	_ZTVNSt6thread11_State_implINS_8_InvokerISt5tupleIJM14packetAnalyserFvvES3_EEEEEE
	.section	.data.rel.ro.local._ZTVNSt6thread11_State_implINS_8_InvokerISt5tupleIJM14packetAnalyserFvvES3_EEEEEE,"awG",@progbits,_ZTVNSt6thread11_State_implINS_8_InvokerISt5tupleIJM14packetAnalyserFvvES3_EEEEEE,comdat
	.align 8
	.type	_ZTVNSt6thread11_State_implINS_8_InvokerISt5tupleIJM14packetAnalyserFvvES3_EEEEEE, @object
	.size	_ZTVNSt6thread11_State_implINS_8_InvokerISt5tupleIJM14packetAnalyserFvvES3_EEEEEE, 40
_ZTVNSt6thread11_State_implINS_8_InvokerISt5tupleIJM14packetAnalyserFvvES3_EEEEEE:
	.quad	0
	.quad	_ZTINSt6thread11_State_implINS_8_InvokerISt5tupleIJM14packetAnalyserFvvES3_EEEEEE
	.quad	_ZNSt6thread11_State_implINS_8_InvokerISt5tupleIJM14packetAnalyserFvvES3_EEEEED1Ev
	.quad	_ZNSt6thread11_State_implINS_8_InvokerISt5tupleIJM14packetAnalyserFvvES3_EEEEED0Ev
	.quad	_ZNSt6thread11_State_implINS_8_InvokerISt5tupleIJM14packetAnalyserFvvES3_EEEEE6_M_runEv
	.section	.text._ZNSt6thread11_State_implINS_8_InvokerISt5tupleIJM14packetAnalyserFvvES3_EEEEED2Ev,"axG",@progbits,_ZNSt6thread11_State_implINS_8_InvokerISt5tupleIJM14packetAnalyserFvvES3_EEEEED5Ev,comdat
	.align 2
	.weak	_ZNSt6thread11_State_implINS_8_InvokerISt5tupleIJM14packetAnalyserFvvES3_EEEEED2Ev
	.type	_ZNSt6thread11_State_implINS_8_InvokerISt5tupleIJM14packetAnalyserFvvES3_EEEEED2Ev, @function
_ZNSt6thread11_State_implINS_8_InvokerISt5tupleIJM14packetAnalyserFvvES3_EEEEED2Ev:
.LFB9767:
	.cfi_startproc
	pushq	%rbp
	.cfi_def_cfa_offset 16
	.cfi_offset 6, -16
	movq	%rsp, %rbp
	.cfi_def_cfa_register 6
	subq	$16, %rsp
	movq	%rdi, -8(%rbp)
	leaq	16+_ZTVNSt6thread11_State_implINS_8_InvokerISt5tupleIJM14packetAnalyserFvvES3_EEEEEE(%rip), %rdx
	movq	-8(%rbp), %rax
	movq	%rdx, (%rax)
	movq	-8(%rbp), %rax
	movq	%rax, %rdi
	call	_ZNSt6thread6_StateD2Ev@PLT
	nop
	leave
	.cfi_def_cfa 7, 8
	ret
	.cfi_endproc
.LFE9767:
	.size	_ZNSt6thread11_State_implINS_8_InvokerISt5tupleIJM14packetAnalyserFvvES3_EEEEED2Ev, .-_ZNSt6thread11_State_implINS_8_InvokerISt5tupleIJM14packetAnalyserFvvES3_EEEEED2Ev
	.weak	_ZNSt6thread11_State_implINS_8_InvokerISt5tupleIJM14packetAnalyserFvvES3_EEEEED1Ev
	.set	_ZNSt6thread11_State_implINS_8_InvokerISt5tupleIJM14packetAnalyserFvvES3_EEEEED1Ev,_ZNSt6thread11_State_implINS_8_InvokerISt5tupleIJM14packetAnalyserFvvES3_EEEEED2Ev
	.section	.text._ZNSt6thread11_State_implINS_8_InvokerISt5tupleIJM14packetAnalyserFvvES3_EEEEED0Ev,"axG",@progbits,_ZNSt6thread11_State_implINS_8_InvokerISt5tupleIJM14packetAnalyserFvvES3_EEEEED5Ev,comdat
	.align 2
	.weak	_ZNSt6thread11_State_implINS_8_InvokerISt5tupleIJM14packetAnalyserFvvES3_EEEEED0Ev
	.type	_ZNSt6thread11_State_implINS_8_InvokerISt5tupleIJM14packetAnalyserFvvES3_EEEEED0Ev, @function
_ZNSt6thread11_State_implINS_8_InvokerISt5tupleIJM14packetAnalyserFvvES3_EEEEED0Ev:
.LFB9769:
	.cfi_startproc
	pushq	%rbp
	.cfi_def_cfa_offset 16
	.cfi_offset 6, -16
	movq	%rsp, %rbp
	.cfi_def_cfa_register 6
	subq	$16, %rsp
	movq	%rdi, -8(%rbp)
	movq	-8(%rbp), %rax
	movq	%rax, %rdi
	call	_ZNSt6thread11_State_implINS_8_InvokerISt5tupleIJM14packetAnalyserFvvES3_EEEEED1Ev
	movq	-8(%rbp), %rax
	movl	$128, %esi
	movq	%rax, %rdi
	call	_ZdlPvm@PLT
	leave
	.cfi_def_cfa 7, 8
	ret
	.cfi_endproc
.LFE9769:
	.size	_ZNSt6thread11_State_implINS_8_InvokerISt5tupleIJM14packetAnalyserFvvES3_EEEEED0Ev, .-_ZNSt6thread11_State_implINS_8_InvokerISt5tupleIJM14packetAnalyserFvvES3_EEEEED0Ev
	.weak	_ZTVNSt6thread11_State_implINS_8_InvokerISt5tupleIJM10echoServerFvvES3_EEEEEE
	.section	.data.rel.ro.local._ZTVNSt6thread11_State_implINS_8_InvokerISt5tupleIJM10echoServerFvvES3_EEEEEE,"awG",@progbits,_ZTVNSt6thread11_State_implINS_8_InvokerISt5tupleIJM10echoServerFvvES3_EEEEEE,comdat
	.align 8
	.type	_ZTVNSt6thread11_State_implINS_8_InvokerISt5tupleIJM10echoServerFvvES3_EEEEEE, @object
	.size	_ZTVNSt6thread11_State_implINS_8_InvokerISt5tupleIJM10echoServerFvvES3_EEEEEE, 40
_ZTVNSt6thread11_State_implINS_8_InvokerISt5tupleIJM10echoServerFvvES3_EEEEEE:
	.quad	0
	.quad	_ZTINSt6thread11_State_implINS_8_InvokerISt5tupleIJM10echoServerFvvES3_EEEEEE
	.quad	_ZNSt6thread11_State_implINS_8_InvokerISt5tupleIJM10echoServerFvvES3_EEEEED1Ev
	.quad	_ZNSt6thread11_State_implINS_8_InvokerISt5tupleIJM10echoServerFvvES3_EEEEED0Ev
	.quad	_ZNSt6thread11_State_implINS_8_InvokerISt5tupleIJM10echoServerFvvES3_EEEEE6_M_runEv
	.section	.text._ZNSt6thread11_State_implINS_8_InvokerISt5tupleIJM10echoServerFvvES3_EEEEED2Ev,"axG",@progbits,_ZNSt6thread11_State_implINS_8_InvokerISt5tupleIJM10echoServerFvvES3_EEEEED5Ev,comdat
	.align 2
	.weak	_ZNSt6thread11_State_implINS_8_InvokerISt5tupleIJM10echoServerFvvES3_EEEEED2Ev
	.type	_ZNSt6thread11_State_implINS_8_InvokerISt5tupleIJM10echoServerFvvES3_EEEEED2Ev, @function
_ZNSt6thread11_State_implINS_8_InvokerISt5tupleIJM10echoServerFvvES3_EEEEED2Ev:
.LFB9771:
	.cfi_startproc
	pushq	%rbp
	.cfi_def_cfa_offset 16
	.cfi_offset 6, -16
	movq	%rsp, %rbp
	.cfi_def_cfa_register 6
	subq	$16, %rsp
	movq	%rdi, -8(%rbp)
	leaq	16+_ZTVNSt6thread11_State_implINS_8_InvokerISt5tupleIJM10echoServerFvvES3_EEEEEE(%rip), %rdx
	movq	-8(%rbp), %rax
	movq	%rdx, (%rax)
	movq	-8(%rbp), %rax
	movq	%rax, %rdi
	call	_ZNSt6thread6_StateD2Ev@PLT
	nop
	leave
	.cfi_def_cfa 7, 8
	ret
	.cfi_endproc
.LFE9771:
	.size	_ZNSt6thread11_State_implINS_8_InvokerISt5tupleIJM10echoServerFvvES3_EEEEED2Ev, .-_ZNSt6thread11_State_implINS_8_InvokerISt5tupleIJM10echoServerFvvES3_EEEEED2Ev
	.weak	_ZNSt6thread11_State_implINS_8_InvokerISt5tupleIJM10echoServerFvvES3_EEEEED1Ev
	.set	_ZNSt6thread11_State_implINS_8_InvokerISt5tupleIJM10echoServerFvvES3_EEEEED1Ev,_ZNSt6thread11_State_implINS_8_InvokerISt5tupleIJM10echoServerFvvES3_EEEEED2Ev
	.section	.text._ZNSt6thread11_State_implINS_8_InvokerISt5tupleIJM10echoServerFvvES3_EEEEED0Ev,"axG",@progbits,_ZNSt6thread11_State_implINS_8_InvokerISt5tupleIJM10echoServerFvvES3_EEEEED5Ev,comdat
	.align 2
	.weak	_ZNSt6thread11_State_implINS_8_InvokerISt5tupleIJM10echoServerFvvES3_EEEEED0Ev
	.type	_ZNSt6thread11_State_implINS_8_InvokerISt5tupleIJM10echoServerFvvES3_EEEEED0Ev, @function
_ZNSt6thread11_State_implINS_8_InvokerISt5tupleIJM10echoServerFvvES3_EEEEED0Ev:
.LFB9773:
	.cfi_startproc
	pushq	%rbp
	.cfi_def_cfa_offset 16
	.cfi_offset 6, -16
	movq	%rsp, %rbp
	.cfi_def_cfa_register 6
	subq	$16, %rsp
	movq	%rdi, -8(%rbp)
	movq	-8(%rbp), %rax
	movq	%rax, %rdi
	call	_ZNSt6thread11_State_implINS_8_InvokerISt5tupleIJM10echoServerFvvES3_EEEEED1Ev
	movq	-8(%rbp), %rax
	movl	$152, %esi
	movq	%rax, %rdi
	call	_ZdlPvm@PLT
	leave
	.cfi_def_cfa 7, 8
	ret
	.cfi_endproc
.LFE9773:
	.size	_ZNSt6thread11_State_implINS_8_InvokerISt5tupleIJM10echoServerFvvES3_EEEEED0Ev, .-_ZNSt6thread11_State_implINS_8_InvokerISt5tupleIJM10echoServerFvvES3_EEEEED0Ev
	.weak	_ZTINSt6thread11_State_implINS_8_InvokerISt5tupleIJM14packetAnalyserFvvES3_EEEEEE
	.section	.data.rel.ro._ZTINSt6thread11_State_implINS_8_InvokerISt5tupleIJM14packetAnalyserFvvES3_EEEEEE,"awG",@progbits,_ZTINSt6thread11_State_implINS_8_InvokerISt5tupleIJM14packetAnalyserFvvES3_EEEEEE,comdat
	.align 8
	.type	_ZTINSt6thread11_State_implINS_8_InvokerISt5tupleIJM14packetAnalyserFvvES3_EEEEEE, @object
	.size	_ZTINSt6thread11_State_implINS_8_InvokerISt5tupleIJM14packetAnalyserFvvES3_EEEEEE, 24
_ZTINSt6thread11_State_implINS_8_InvokerISt5tupleIJM14packetAnalyserFvvES3_EEEEEE:
	.quad	_ZTVN10__cxxabiv120__si_class_type_infoE+16
	.quad	_ZTSNSt6thread11_State_implINS_8_InvokerISt5tupleIJM14packetAnalyserFvvES3_EEEEEE
	.quad	_ZTINSt6thread6_StateE
	.weak	_ZTSNSt6thread11_State_implINS_8_InvokerISt5tupleIJM14packetAnalyserFvvES3_EEEEEE
	.section	.rodata._ZTSNSt6thread11_State_implINS_8_InvokerISt5tupleIJM14packetAnalyserFvvES3_EEEEEE,"aG",@progbits,_ZTSNSt6thread11_State_implINS_8_InvokerISt5tupleIJM14packetAnalyserFvvES3_EEEEEE,comdat
	.align 32
	.type	_ZTSNSt6thread11_State_implINS_8_InvokerISt5tupleIJM14packetAnalyserFvvES3_EEEEEE, @object
	.size	_ZTSNSt6thread11_State_implINS_8_InvokerISt5tupleIJM14packetAnalyserFvvES3_EEEEEE, 78
_ZTSNSt6thread11_State_implINS_8_InvokerISt5tupleIJM14packetAnalyserFvvES3_EEEEEE:
	.string	"NSt6thread11_State_implINS_8_InvokerISt5tupleIJM14packetAnalyserFvvES3_EEEEEE"
	.weak	_ZTINSt6thread11_State_implINS_8_InvokerISt5tupleIJM10echoServerFvvES3_EEEEEE
	.section	.data.rel.ro._ZTINSt6thread11_State_implINS_8_InvokerISt5tupleIJM10echoServerFvvES3_EEEEEE,"awG",@progbits,_ZTINSt6thread11_State_implINS_8_InvokerISt5tupleIJM10echoServerFvvES3_EEEEEE,comdat
	.align 8
	.type	_ZTINSt6thread11_State_implINS_8_InvokerISt5tupleIJM10echoServerFvvES3_EEEEEE, @object
	.size	_ZTINSt6thread11_State_implINS_8_InvokerISt5tupleIJM10echoServerFvvES3_EEEEEE, 24
_ZTINSt6thread11_State_implINS_8_InvokerISt5tupleIJM10echoServerFvvES3_EEEEEE:
	.quad	_ZTVN10__cxxabiv120__si_class_type_infoE+16
	.quad	_ZTSNSt6thread11_State_implINS_8_InvokerISt5tupleIJM10echoServerFvvES3_EEEEEE
	.quad	_ZTINSt6thread6_StateE
	.weak	_ZTSNSt6thread11_State_implINS_8_InvokerISt5tupleIJM10echoServerFvvES3_EEEEEE
	.section	.rodata._ZTSNSt6thread11_State_implINS_8_InvokerISt5tupleIJM10echoServerFvvES3_EEEEEE,"aG",@progbits,_ZTSNSt6thread11_State_implINS_8_InvokerISt5tupleIJM10echoServerFvvES3_EEEEEE,comdat
	.align 32
	.type	_ZTSNSt6thread11_State_implINS_8_InvokerISt5tupleIJM10echoServerFvvES3_EEEEEE, @object
	.size	_ZTSNSt6thread11_State_implINS_8_InvokerISt5tupleIJM10echoServerFvvES3_EEEEEE, 74
_ZTSNSt6thread11_State_implINS_8_InvokerISt5tupleIJM10echoServerFvvES3_EEEEEE:
	.string	"NSt6thread11_State_implINS_8_InvokerISt5tupleIJM10echoServerFvvES3_EEEEEE"
	.text
	.type	_Z41__static_initialization_and_destruction_0ii, @function
_Z41__static_initialization_and_destruction_0ii:
.LFB9798:
	.cfi_startproc
	pushq	%rbp
	.cfi_def_cfa_offset 16
	.cfi_offset 6, -16
	movq	%rsp, %rbp
	.cfi_def_cfa_register 6
	subq	$16, %rsp
	movl	%edi, -4(%rbp)
	movl	%esi, -8(%rbp)
	cmpl	$1, -4(%rbp)
	jne	.L370
	cmpl	$65535, -8(%rbp)
	jne	.L370
	leaq	_ZStL8__ioinit(%rip), %rdi
	call	_ZNSt8ios_base4InitC1Ev@PLT
	leaq	__dso_handle(%rip), %rdx
	leaq	_ZStL8__ioinit(%rip), %rsi
	movq	_ZNSt8ios_base4InitD1Ev@GOTPCREL(%rip), %rax
	movq	%rax, %rdi
	call	__cxa_atexit@PLT
.L370:
	nop
	leave
	.cfi_def_cfa 7, 8
	ret
	.cfi_endproc
.LFE9798:
	.size	_Z41__static_initialization_and_destruction_0ii, .-_Z41__static_initialization_and_destruction_0ii
	.section	.text._ZNSt6thread11_State_implINS_8_InvokerISt5tupleIJM14packetAnalyserFvvES3_EEEEE6_M_runEv,"axG",@progbits,_ZNSt6thread11_State_implINS_8_InvokerISt5tupleIJM14packetAnalyserFvvES3_EEEEE6_M_runEv,comdat
	.align 2
	.weak	_ZNSt6thread11_State_implINS_8_InvokerISt5tupleIJM14packetAnalyserFvvES3_EEEEE6_M_runEv
	.type	_ZNSt6thread11_State_implINS_8_InvokerISt5tupleIJM14packetAnalyserFvvES3_EEEEE6_M_runEv, @function
_ZNSt6thread11_State_implINS_8_InvokerISt5tupleIJM14packetAnalyserFvvES3_EEEEE6_M_runEv:
.LFB9813:
	.cfi_startproc
	pushq	%rbp
	.cfi_def_cfa_offset 16
	.cfi_offset 6, -16
	movq	%rsp, %rbp
	.cfi_def_cfa_register 6
	subq	$16, %rsp
	movq	%rdi, -8(%rbp)
	movq	-8(%rbp), %rax
	addq	$8, %rax
	movq	%rax, %rdi
	call	_ZNSt6thread8_InvokerISt5tupleIJM14packetAnalyserFvvES2_EEEclEv
	nop
	leave
	.cfi_def_cfa 7, 8
	ret
	.cfi_endproc
.LFE9813:
	.size	_ZNSt6thread11_State_implINS_8_InvokerISt5tupleIJM14packetAnalyserFvvES3_EEEEE6_M_runEv, .-_ZNSt6thread11_State_implINS_8_InvokerISt5tupleIJM14packetAnalyserFvvES3_EEEEE6_M_runEv
	.section	.text._ZNSt6thread11_State_implINS_8_InvokerISt5tupleIJM10echoServerFvvES3_EEEEE6_M_runEv,"axG",@progbits,_ZNSt6thread11_State_implINS_8_InvokerISt5tupleIJM10echoServerFvvES3_EEEEE6_M_runEv,comdat
	.align 2
	.weak	_ZNSt6thread11_State_implINS_8_InvokerISt5tupleIJM10echoServerFvvES3_EEEEE6_M_runEv
	.type	_ZNSt6thread11_State_implINS_8_InvokerISt5tupleIJM10echoServerFvvES3_EEEEE6_M_runEv, @function
_ZNSt6thread11_State_implINS_8_InvokerISt5tupleIJM10echoServerFvvES3_EEEEE6_M_runEv:
.LFB9814:
	.cfi_startproc
	pushq	%rbp
	.cfi_def_cfa_offset 16
	.cfi_offset 6, -16
	movq	%rsp, %rbp
	.cfi_def_cfa_register 6
	subq	$16, %rsp
	movq	%rdi, -8(%rbp)
	movq	-8(%rbp), %rax
	addq	$8, %rax
	movq	%rax, %rdi
	call	_ZNSt6thread8_InvokerISt5tupleIJM10echoServerFvvES2_EEEclEv
	nop
	leave
	.cfi_def_cfa 7, 8
	ret
	.cfi_endproc
.LFE9814:
	.size	_ZNSt6thread11_State_implINS_8_InvokerISt5tupleIJM10echoServerFvvES3_EEEEE6_M_runEv, .-_ZNSt6thread11_State_implINS_8_InvokerISt5tupleIJM10echoServerFvvES3_EEEEE6_M_runEv
	.section	.text._ZNSt6thread8_InvokerISt5tupleIJM14packetAnalyserFvvES2_EEEclEv,"axG",@progbits,_ZNSt6thread8_InvokerISt5tupleIJM14packetAnalyserFvvES2_EEEclEv,comdat
	.align 2
	.weak	_ZNSt6thread8_InvokerISt5tupleIJM14packetAnalyserFvvES2_EEEclEv
	.type	_ZNSt6thread8_InvokerISt5tupleIJM14packetAnalyserFvvES2_EEEclEv, @function
_ZNSt6thread8_InvokerISt5tupleIJM14packetAnalyserFvvES2_EEEclEv:
.LFB9819:
	.cfi_startproc
	pushq	%rbp
	.cfi_def_cfa_offset 16
	.cfi_offset 6, -16
	movq	%rsp, %rbp
	.cfi_def_cfa_register 6
	subq	$32, %rsp
	movq	%rdi, -24(%rbp)
	movq	%fs:40, %rax
	movq	%rax, -8(%rbp)
	xorl	%eax, %eax
	movq	-24(%rbp), %rax
	subq	$8, %rsp
	pushq	%rdx
	movq	%rax, %rdi
	call	_ZNSt6thread8_InvokerISt5tupleIJM14packetAnalyserFvvES2_EEE9_M_invokeIJLm0ELm1EEEEDTcl8__invokespcl10_S_declvalIXT_EEEEESt12_Index_tupleIJXspT_EEE
	addq	$16, %rsp
	nop
	movq	-8(%rbp), %rax
	xorq	%fs:40, %rax
	je	.L375
	call	__stack_chk_fail@PLT
.L375:
	leave
	.cfi_def_cfa 7, 8
	ret
	.cfi_endproc
.LFE9819:
	.size	_ZNSt6thread8_InvokerISt5tupleIJM14packetAnalyserFvvES2_EEEclEv, .-_ZNSt6thread8_InvokerISt5tupleIJM14packetAnalyserFvvES2_EEEclEv
	.section	.text._ZNSt6thread8_InvokerISt5tupleIJM10echoServerFvvES2_EEEclEv,"axG",@progbits,_ZNSt6thread8_InvokerISt5tupleIJM10echoServerFvvES2_EEEclEv,comdat
	.align 2
	.weak	_ZNSt6thread8_InvokerISt5tupleIJM10echoServerFvvES2_EEEclEv
	.type	_ZNSt6thread8_InvokerISt5tupleIJM10echoServerFvvES2_EEEclEv, @function
_ZNSt6thread8_InvokerISt5tupleIJM10echoServerFvvES2_EEEclEv:
.LFB9820:
	.cfi_startproc
	pushq	%rbp
	.cfi_def_cfa_offset 16
	.cfi_offset 6, -16
	movq	%rsp, %rbp
	.cfi_def_cfa_register 6
	subq	$32, %rsp
	movq	%rdi, -24(%rbp)
	movq	%fs:40, %rax
	movq	%rax, -8(%rbp)
	xorl	%eax, %eax
	movq	-24(%rbp), %rax
	subq	$8, %rsp
	pushq	%rdx
	movq	%rax, %rdi
	call	_ZNSt6thread8_InvokerISt5tupleIJM10echoServerFvvES2_EEE9_M_invokeIJLm0ELm1EEEEDTcl8__invokespcl10_S_declvalIXT_EEEEESt12_Index_tupleIJXspT_EEE
	addq	$16, %rsp
	nop
	movq	-8(%rbp), %rax
	xorq	%fs:40, %rax
	je	.L378
	call	__stack_chk_fail@PLT
.L378:
	leave
	.cfi_def_cfa 7, 8
	ret
	.cfi_endproc
.LFE9820:
	.size	_ZNSt6thread8_InvokerISt5tupleIJM10echoServerFvvES2_EEEclEv, .-_ZNSt6thread8_InvokerISt5tupleIJM10echoServerFvvES2_EEEclEv
	.section	.text._ZNSt6thread8_InvokerISt5tupleIJM14packetAnalyserFvvES2_EEE9_M_invokeIJLm0ELm1EEEEDTcl8__invokespcl10_S_declvalIXT_EEEEESt12_Index_tupleIJXspT_EEE,"axG",@progbits,_ZNSt6thread8_InvokerISt5tupleIJM14packetAnalyserFvvES2_EEE9_M_invokeIJLm0ELm1EEEEDTcl8__invokespcl10_S_declvalIXT_EEEEESt12_Index_tupleIJXspT_EEE,comdat
	.align 2
	.weak	_ZNSt6thread8_InvokerISt5tupleIJM14packetAnalyserFvvES2_EEE9_M_invokeIJLm0ELm1EEEEDTcl8__invokespcl10_S_declvalIXT_EEEEESt12_Index_tupleIJXspT_EEE
	.type	_ZNSt6thread8_InvokerISt5tupleIJM14packetAnalyserFvvES2_EEE9_M_invokeIJLm0ELm1EEEEDTcl8__invokespcl10_S_declvalIXT_EEEEESt12_Index_tupleIJXspT_EEE, @function
_ZNSt6thread8_InvokerISt5tupleIJM14packetAnalyserFvvES2_EEE9_M_invokeIJLm0ELm1EEEEDTcl8__invokespcl10_S_declvalIXT_EEEEESt12_Index_tupleIJXspT_EEE:
.LFB9825:
	.cfi_startproc
	pushq	%rbp
	.cfi_def_cfa_offset 16
	.cfi_offset 6, -16
	movq	%rsp, %rbp
	.cfi_def_cfa_register 6
	pushq	%rbx
	subq	$24, %rsp
	.cfi_offset 3, -24
	movq	%rdi, -24(%rbp)
	movq	-24(%rbp), %rax
	movq	%rax, %rdi
	call	_ZSt4moveIRSt5tupleIJM14packetAnalyserFvvES1_EEEONSt16remove_referenceIT_E4typeEOS7_
	movq	%rax, %rdi
	call	_ZSt3getILm1EJM14packetAnalyserFvvES0_EEONSt13tuple_elementIXT_ESt5tupleIJDpT0_EEE4typeEOS7_
	movq	%rax, %rbx
	movq	-24(%rbp), %rax
	movq	%rax, %rdi
	call	_ZSt4moveIRSt5tupleIJM14packetAnalyserFvvES1_EEEONSt16remove_referenceIT_E4typeEOS7_
	movq	%rax, %rdi
	call	_ZSt3getILm0EJM14packetAnalyserFvvES0_EEONSt13tuple_elementIXT_ESt5tupleIJDpT0_EEE4typeEOS7_
	movq	%rbx, %rsi
	movq	%rax, %rdi
	call	_ZSt8__invokeIM14packetAnalyserFvvEJS0_EENSt15__invoke_resultIT_JDpT0_EE4typeEOS4_DpOS5_
	nop
	addq	$24, %rsp
	popq	%rbx
	popq	%rbp
	.cfi_def_cfa 7, 8
	ret
	.cfi_endproc
.LFE9825:
	.size	_ZNSt6thread8_InvokerISt5tupleIJM14packetAnalyserFvvES2_EEE9_M_invokeIJLm0ELm1EEEEDTcl8__invokespcl10_S_declvalIXT_EEEEESt12_Index_tupleIJXspT_EEE, .-_ZNSt6thread8_InvokerISt5tupleIJM14packetAnalyserFvvES2_EEE9_M_invokeIJLm0ELm1EEEEDTcl8__invokespcl10_S_declvalIXT_EEEEESt12_Index_tupleIJXspT_EEE
	.section	.text._ZNSt6thread8_InvokerISt5tupleIJM10echoServerFvvES2_EEE9_M_invokeIJLm0ELm1EEEEDTcl8__invokespcl10_S_declvalIXT_EEEEESt12_Index_tupleIJXspT_EEE,"axG",@progbits,_ZNSt6thread8_InvokerISt5tupleIJM10echoServerFvvES2_EEE9_M_invokeIJLm0ELm1EEEEDTcl8__invokespcl10_S_declvalIXT_EEEEESt12_Index_tupleIJXspT_EEE,comdat
	.align 2
	.weak	_ZNSt6thread8_InvokerISt5tupleIJM10echoServerFvvES2_EEE9_M_invokeIJLm0ELm1EEEEDTcl8__invokespcl10_S_declvalIXT_EEEEESt12_Index_tupleIJXspT_EEE
	.type	_ZNSt6thread8_InvokerISt5tupleIJM10echoServerFvvES2_EEE9_M_invokeIJLm0ELm1EEEEDTcl8__invokespcl10_S_declvalIXT_EEEEESt12_Index_tupleIJXspT_EEE, @function
_ZNSt6thread8_InvokerISt5tupleIJM10echoServerFvvES2_EEE9_M_invokeIJLm0ELm1EEEEDTcl8__invokespcl10_S_declvalIXT_EEEEESt12_Index_tupleIJXspT_EEE:
.LFB9826:
	.cfi_startproc
	pushq	%rbp
	.cfi_def_cfa_offset 16
	.cfi_offset 6, -16
	movq	%rsp, %rbp
	.cfi_def_cfa_register 6
	pushq	%rbx
	subq	$24, %rsp
	.cfi_offset 3, -24
	movq	%rdi, -24(%rbp)
	movq	-24(%rbp), %rax
	movq	%rax, %rdi
	call	_ZSt4moveIRSt5tupleIJM10echoServerFvvES1_EEEONSt16remove_referenceIT_E4typeEOS7_
	movq	%rax, %rdi
	call	_ZSt3getILm1EJM10echoServerFvvES0_EEONSt13tuple_elementIXT_ESt5tupleIJDpT0_EEE4typeEOS7_
	movq	%rax, %rbx
	movq	-24(%rbp), %rax
	movq	%rax, %rdi
	call	_ZSt4moveIRSt5tupleIJM10echoServerFvvES1_EEEONSt16remove_referenceIT_E4typeEOS7_
	movq	%rax, %rdi
	call	_ZSt3getILm0EJM10echoServerFvvES0_EEONSt13tuple_elementIXT_ESt5tupleIJDpT0_EEE4typeEOS7_
	movq	%rbx, %rsi
	movq	%rax, %rdi
	call	_ZSt8__invokeIM10echoServerFvvEJS0_EENSt15__invoke_resultIT_JDpT0_EE4typeEOS4_DpOS5_
	nop
	addq	$24, %rsp
	popq	%rbx
	popq	%rbp
	.cfi_def_cfa 7, 8
	ret
	.cfi_endproc
.LFE9826:
	.size	_ZNSt6thread8_InvokerISt5tupleIJM10echoServerFvvES2_EEE9_M_invokeIJLm0ELm1EEEEDTcl8__invokespcl10_S_declvalIXT_EEEEESt12_Index_tupleIJXspT_EEE, .-_ZNSt6thread8_InvokerISt5tupleIJM10echoServerFvvES2_EEE9_M_invokeIJLm0ELm1EEEEDTcl8__invokespcl10_S_declvalIXT_EEEEESt12_Index_tupleIJXspT_EEE
	.section	.text._ZSt4moveIRSt5tupleIJM14packetAnalyserFvvES1_EEEONSt16remove_referenceIT_E4typeEOS7_,"axG",@progbits,_ZSt4moveIRSt5tupleIJM14packetAnalyserFvvES1_EEEONSt16remove_referenceIT_E4typeEOS7_,comdat
	.weak	_ZSt4moveIRSt5tupleIJM14packetAnalyserFvvES1_EEEONSt16remove_referenceIT_E4typeEOS7_
	.type	_ZSt4moveIRSt5tupleIJM14packetAnalyserFvvES1_EEEONSt16remove_referenceIT_E4typeEOS7_, @function
_ZSt4moveIRSt5tupleIJM14packetAnalyserFvvES1_EEEONSt16remove_referenceIT_E4typeEOS7_:
.LFB9827:
	.cfi_startproc
	pushq	%rbp
	.cfi_def_cfa_offset 16
	.cfi_offset 6, -16
	movq	%rsp, %rbp
	.cfi_def_cfa_register 6
	movq	%rdi, -8(%rbp)
	movq	-8(%rbp), %rax
	popq	%rbp
	.cfi_def_cfa 7, 8
	ret
	.cfi_endproc
.LFE9827:
	.size	_ZSt4moveIRSt5tupleIJM14packetAnalyserFvvES1_EEEONSt16remove_referenceIT_E4typeEOS7_, .-_ZSt4moveIRSt5tupleIJM14packetAnalyserFvvES1_EEEONSt16remove_referenceIT_E4typeEOS7_
	.section	.text._ZSt3getILm0EJM14packetAnalyserFvvES0_EERNSt13tuple_elementIXT_ESt5tupleIJDpT0_EEE4typeERS7_,"axG",@progbits,_ZSt3getILm0EJM14packetAnalyserFvvES0_EERNSt13tuple_elementIXT_ESt5tupleIJDpT0_EEE4typeERS7_,comdat
	.weak	_ZSt3getILm0EJM14packetAnalyserFvvES0_EERNSt13tuple_elementIXT_ESt5tupleIJDpT0_EEE4typeERS7_
	.type	_ZSt3getILm0EJM14packetAnalyserFvvES0_EERNSt13tuple_elementIXT_ESt5tupleIJDpT0_EEE4typeERS7_, @function
_ZSt3getILm0EJM14packetAnalyserFvvES0_EERNSt13tuple_elementIXT_ESt5tupleIJDpT0_EEE4typeERS7_:
.LFB9829:
	.cfi_startproc
	pushq	%rbp
	.cfi_def_cfa_offset 16
	.cfi_offset 6, -16
	movq	%rsp, %rbp
	.cfi_def_cfa_register 6
	subq	$16, %rsp
	movq	%rdi, -8(%rbp)
	movq	-8(%rbp), %rax
	movq	%rax, %rdi
	call	_ZSt12__get_helperILm0EM14packetAnalyserFvvEJS0_EERT0_RSt11_Tuple_implIXT_EJS3_DpT1_EE
	leave
	.cfi_def_cfa 7, 8
	ret
	.cfi_endproc
.LFE9829:
	.size	_ZSt3getILm0EJM14packetAnalyserFvvES0_EERNSt13tuple_elementIXT_ESt5tupleIJDpT0_EEE4typeERS7_, .-_ZSt3getILm0EJM14packetAnalyserFvvES0_EERNSt13tuple_elementIXT_ESt5tupleIJDpT0_EEE4typeERS7_
	.section	.text._ZSt12__get_helperILm0EM14packetAnalyserFvvEJS0_EERT0_RSt11_Tuple_implIXT_EJS3_DpT1_EE,"axG",@progbits,_ZSt12__get_helperILm0EM14packetAnalyserFvvEJS0_EERT0_RSt11_Tuple_implIXT_EJS3_DpT1_EE,comdat
	.weak	_ZSt12__get_helperILm0EM14packetAnalyserFvvEJS0_EERT0_RSt11_Tuple_implIXT_EJS3_DpT1_EE
	.type	_ZSt12__get_helperILm0EM14packetAnalyserFvvEJS0_EERT0_RSt11_Tuple_implIXT_EJS3_DpT1_EE, @function
_ZSt12__get_helperILm0EM14packetAnalyserFvvEJS0_EERT0_RSt11_Tuple_implIXT_EJS3_DpT1_EE:
.LFB9830:
	.cfi_startproc
	pushq	%rbp
	.cfi_def_cfa_offset 16
	.cfi_offset 6, -16
	movq	%rsp, %rbp
	.cfi_def_cfa_register 6
	subq	$16, %rsp
	movq	%rdi, -8(%rbp)
	movq	-8(%rbp), %rax
	movq	%rax, %rdi
	call	_ZNSt11_Tuple_implILm0EJM14packetAnalyserFvvES0_EE7_M_headERS3_
	leave
	.cfi_def_cfa 7, 8
	ret
	.cfi_endproc
.LFE9830:
	.size	_ZSt12__get_helperILm0EM14packetAnalyserFvvEJS0_EERT0_RSt11_Tuple_implIXT_EJS3_DpT1_EE, .-_ZSt12__get_helperILm0EM14packetAnalyserFvvEJS0_EERT0_RSt11_Tuple_implIXT_EJS3_DpT1_EE
	.section	.text._ZSt3getILm0EJM14packetAnalyserFvvES0_EEONSt13tuple_elementIXT_ESt5tupleIJDpT0_EEE4typeEOS7_,"axG",@progbits,_ZSt3getILm0EJM14packetAnalyserFvvES0_EEONSt13tuple_elementIXT_ESt5tupleIJDpT0_EEE4typeEOS7_,comdat
	.weak	_ZSt3getILm0EJM14packetAnalyserFvvES0_EEONSt13tuple_elementIXT_ESt5tupleIJDpT0_EEE4typeEOS7_
	.type	_ZSt3getILm0EJM14packetAnalyserFvvES0_EEONSt13tuple_elementIXT_ESt5tupleIJDpT0_EEE4typeEOS7_, @function
_ZSt3getILm0EJM14packetAnalyserFvvES0_EEONSt13tuple_elementIXT_ESt5tupleIJDpT0_EEE4typeEOS7_:
.LFB9828:
	.cfi_startproc
	pushq	%rbp
	.cfi_def_cfa_offset 16
	.cfi_offset 6, -16
	movq	%rsp, %rbp
	.cfi_def_cfa_register 6
	subq	$16, %rsp
	movq	%rdi, -8(%rbp)
	movq	-8(%rbp), %rax
	movq	%rax, %rdi
	call	_ZSt3getILm0EJM14packetAnalyserFvvES0_EERNSt13tuple_elementIXT_ESt5tupleIJDpT0_EEE4typeERS7_
	movq	%rax, %rdi
	call	_ZSt7forwardIOM14packetAnalyserFvvEEOT_RNSt16remove_referenceIS4_E4typeE
	leave
	.cfi_def_cfa 7, 8
	ret
	.cfi_endproc
.LFE9828:
	.size	_ZSt3getILm0EJM14packetAnalyserFvvES0_EEONSt13tuple_elementIXT_ESt5tupleIJDpT0_EEE4typeEOS7_, .-_ZSt3getILm0EJM14packetAnalyserFvvES0_EEONSt13tuple_elementIXT_ESt5tupleIJDpT0_EEE4typeEOS7_
	.section	.text._ZSt3getILm1EJM14packetAnalyserFvvES0_EERNSt13tuple_elementIXT_ESt5tupleIJDpT0_EEE4typeERS7_,"axG",@progbits,_ZSt3getILm1EJM14packetAnalyserFvvES0_EERNSt13tuple_elementIXT_ESt5tupleIJDpT0_EEE4typeERS7_,comdat
	.weak	_ZSt3getILm1EJM14packetAnalyserFvvES0_EERNSt13tuple_elementIXT_ESt5tupleIJDpT0_EEE4typeERS7_
	.type	_ZSt3getILm1EJM14packetAnalyserFvvES0_EERNSt13tuple_elementIXT_ESt5tupleIJDpT0_EEE4typeERS7_, @function
_ZSt3getILm1EJM14packetAnalyserFvvES0_EERNSt13tuple_elementIXT_ESt5tupleIJDpT0_EEE4typeERS7_:
.LFB9832:
	.cfi_startproc
	pushq	%rbp
	.cfi_def_cfa_offset 16
	.cfi_offset 6, -16
	movq	%rsp, %rbp
	.cfi_def_cfa_register 6
	subq	$16, %rsp
	movq	%rdi, -8(%rbp)
	movq	-8(%rbp), %rax
	movq	%rax, %rdi
	call	_ZSt12__get_helperILm1E14packetAnalyserJEERT0_RSt11_Tuple_implIXT_EJS1_DpT1_EE
	leave
	.cfi_def_cfa 7, 8
	ret
	.cfi_endproc
.LFE9832:
	.size	_ZSt3getILm1EJM14packetAnalyserFvvES0_EERNSt13tuple_elementIXT_ESt5tupleIJDpT0_EEE4typeERS7_, .-_ZSt3getILm1EJM14packetAnalyserFvvES0_EERNSt13tuple_elementIXT_ESt5tupleIJDpT0_EEE4typeERS7_
	.section	.text._ZSt12__get_helperILm1E14packetAnalyserJEERT0_RSt11_Tuple_implIXT_EJS1_DpT1_EE,"axG",@progbits,_ZSt12__get_helperILm1E14packetAnalyserJEERT0_RSt11_Tuple_implIXT_EJS1_DpT1_EE,comdat
	.weak	_ZSt12__get_helperILm1E14packetAnalyserJEERT0_RSt11_Tuple_implIXT_EJS1_DpT1_EE
	.type	_ZSt12__get_helperILm1E14packetAnalyserJEERT0_RSt11_Tuple_implIXT_EJS1_DpT1_EE, @function
_ZSt12__get_helperILm1E14packetAnalyserJEERT0_RSt11_Tuple_implIXT_EJS1_DpT1_EE:
.LFB9833:
	.cfi_startproc
	pushq	%rbp
	.cfi_def_cfa_offset 16
	.cfi_offset 6, -16
	movq	%rsp, %rbp
	.cfi_def_cfa_register 6
	subq	$16, %rsp
	movq	%rdi, -8(%rbp)
	movq	-8(%rbp), %rax
	movq	%rax, %rdi
	call	_ZNSt11_Tuple_implILm1EJ14packetAnalyserEE7_M_headERS1_
	leave
	.cfi_def_cfa 7, 8
	ret
	.cfi_endproc
.LFE9833:
	.size	_ZSt12__get_helperILm1E14packetAnalyserJEERT0_RSt11_Tuple_implIXT_EJS1_DpT1_EE, .-_ZSt12__get_helperILm1E14packetAnalyserJEERT0_RSt11_Tuple_implIXT_EJS1_DpT1_EE
	.section	.text._ZSt3getILm1EJM14packetAnalyserFvvES0_EEONSt13tuple_elementIXT_ESt5tupleIJDpT0_EEE4typeEOS7_,"axG",@progbits,_ZSt3getILm1EJM14packetAnalyserFvvES0_EEONSt13tuple_elementIXT_ESt5tupleIJDpT0_EEE4typeEOS7_,comdat
	.weak	_ZSt3getILm1EJM14packetAnalyserFvvES0_EEONSt13tuple_elementIXT_ESt5tupleIJDpT0_EEE4typeEOS7_
	.type	_ZSt3getILm1EJM14packetAnalyserFvvES0_EEONSt13tuple_elementIXT_ESt5tupleIJDpT0_EEE4typeEOS7_, @function
_ZSt3getILm1EJM14packetAnalyserFvvES0_EEONSt13tuple_elementIXT_ESt5tupleIJDpT0_EEE4typeEOS7_:
.LFB9831:
	.cfi_startproc
	pushq	%rbp
	.cfi_def_cfa_offset 16
	.cfi_offset 6, -16
	movq	%rsp, %rbp
	.cfi_def_cfa_register 6
	subq	$16, %rsp
	movq	%rdi, -8(%rbp)
	movq	-8(%rbp), %rax
	movq	%rax, %rdi
	call	_ZSt3getILm1EJM14packetAnalyserFvvES0_EERNSt13tuple_elementIXT_ESt5tupleIJDpT0_EEE4typeERS7_
	movq	%rax, %rdi
	call	_ZSt7forwardIO14packetAnalyserEOT_RNSt16remove_referenceIS2_E4typeE
	leave
	.cfi_def_cfa 7, 8
	ret
	.cfi_endproc
.LFE9831:
	.size	_ZSt3getILm1EJM14packetAnalyserFvvES0_EEONSt13tuple_elementIXT_ESt5tupleIJDpT0_EEE4typeEOS7_, .-_ZSt3getILm1EJM14packetAnalyserFvvES0_EEONSt13tuple_elementIXT_ESt5tupleIJDpT0_EEE4typeEOS7_
	.section	.text._ZSt4moveIRSt5tupleIJM10echoServerFvvES1_EEEONSt16remove_referenceIT_E4typeEOS7_,"axG",@progbits,_ZSt4moveIRSt5tupleIJM10echoServerFvvES1_EEEONSt16remove_referenceIT_E4typeEOS7_,comdat
	.weak	_ZSt4moveIRSt5tupleIJM10echoServerFvvES1_EEEONSt16remove_referenceIT_E4typeEOS7_
	.type	_ZSt4moveIRSt5tupleIJM10echoServerFvvES1_EEEONSt16remove_referenceIT_E4typeEOS7_, @function
_ZSt4moveIRSt5tupleIJM10echoServerFvvES1_EEEONSt16remove_referenceIT_E4typeEOS7_:
.LFB9834:
	.cfi_startproc
	pushq	%rbp
	.cfi_def_cfa_offset 16
	.cfi_offset 6, -16
	movq	%rsp, %rbp
	.cfi_def_cfa_register 6
	movq	%rdi, -8(%rbp)
	movq	-8(%rbp), %rax
	popq	%rbp
	.cfi_def_cfa 7, 8
	ret
	.cfi_endproc
.LFE9834:
	.size	_ZSt4moveIRSt5tupleIJM10echoServerFvvES1_EEEONSt16remove_referenceIT_E4typeEOS7_, .-_ZSt4moveIRSt5tupleIJM10echoServerFvvES1_EEEONSt16remove_referenceIT_E4typeEOS7_
	.section	.text._ZSt3getILm0EJM10echoServerFvvES0_EERNSt13tuple_elementIXT_ESt5tupleIJDpT0_EEE4typeERS7_,"axG",@progbits,_ZSt3getILm0EJM10echoServerFvvES0_EERNSt13tuple_elementIXT_ESt5tupleIJDpT0_EEE4typeERS7_,comdat
	.weak	_ZSt3getILm0EJM10echoServerFvvES0_EERNSt13tuple_elementIXT_ESt5tupleIJDpT0_EEE4typeERS7_
	.type	_ZSt3getILm0EJM10echoServerFvvES0_EERNSt13tuple_elementIXT_ESt5tupleIJDpT0_EEE4typeERS7_, @function
_ZSt3getILm0EJM10echoServerFvvES0_EERNSt13tuple_elementIXT_ESt5tupleIJDpT0_EEE4typeERS7_:
.LFB9836:
	.cfi_startproc
	pushq	%rbp
	.cfi_def_cfa_offset 16
	.cfi_offset 6, -16
	movq	%rsp, %rbp
	.cfi_def_cfa_register 6
	subq	$16, %rsp
	movq	%rdi, -8(%rbp)
	movq	-8(%rbp), %rax
	movq	%rax, %rdi
	call	_ZSt12__get_helperILm0EM10echoServerFvvEJS0_EERT0_RSt11_Tuple_implIXT_EJS3_DpT1_EE
	leave
	.cfi_def_cfa 7, 8
	ret
	.cfi_endproc
.LFE9836:
	.size	_ZSt3getILm0EJM10echoServerFvvES0_EERNSt13tuple_elementIXT_ESt5tupleIJDpT0_EEE4typeERS7_, .-_ZSt3getILm0EJM10echoServerFvvES0_EERNSt13tuple_elementIXT_ESt5tupleIJDpT0_EEE4typeERS7_
	.section	.text._ZSt12__get_helperILm0EM10echoServerFvvEJS0_EERT0_RSt11_Tuple_implIXT_EJS3_DpT1_EE,"axG",@progbits,_ZSt12__get_helperILm0EM10echoServerFvvEJS0_EERT0_RSt11_Tuple_implIXT_EJS3_DpT1_EE,comdat
	.weak	_ZSt12__get_helperILm0EM10echoServerFvvEJS0_EERT0_RSt11_Tuple_implIXT_EJS3_DpT1_EE
	.type	_ZSt12__get_helperILm0EM10echoServerFvvEJS0_EERT0_RSt11_Tuple_implIXT_EJS3_DpT1_EE, @function
_ZSt12__get_helperILm0EM10echoServerFvvEJS0_EERT0_RSt11_Tuple_implIXT_EJS3_DpT1_EE:
.LFB9837:
	.cfi_startproc
	pushq	%rbp
	.cfi_def_cfa_offset 16
	.cfi_offset 6, -16
	movq	%rsp, %rbp
	.cfi_def_cfa_register 6
	subq	$16, %rsp
	movq	%rdi, -8(%rbp)
	movq	-8(%rbp), %rax
	movq	%rax, %rdi
	call	_ZNSt11_Tuple_implILm0EJM10echoServerFvvES0_EE7_M_headERS3_
	leave
	.cfi_def_cfa 7, 8
	ret
	.cfi_endproc
.LFE9837:
	.size	_ZSt12__get_helperILm0EM10echoServerFvvEJS0_EERT0_RSt11_Tuple_implIXT_EJS3_DpT1_EE, .-_ZSt12__get_helperILm0EM10echoServerFvvEJS0_EERT0_RSt11_Tuple_implIXT_EJS3_DpT1_EE
	.section	.text._ZSt3getILm0EJM10echoServerFvvES0_EEONSt13tuple_elementIXT_ESt5tupleIJDpT0_EEE4typeEOS7_,"axG",@progbits,_ZSt3getILm0EJM10echoServerFvvES0_EEONSt13tuple_elementIXT_ESt5tupleIJDpT0_EEE4typeEOS7_,comdat
	.weak	_ZSt3getILm0EJM10echoServerFvvES0_EEONSt13tuple_elementIXT_ESt5tupleIJDpT0_EEE4typeEOS7_
	.type	_ZSt3getILm0EJM10echoServerFvvES0_EEONSt13tuple_elementIXT_ESt5tupleIJDpT0_EEE4typeEOS7_, @function
_ZSt3getILm0EJM10echoServerFvvES0_EEONSt13tuple_elementIXT_ESt5tupleIJDpT0_EEE4typeEOS7_:
.LFB9835:
	.cfi_startproc
	pushq	%rbp
	.cfi_def_cfa_offset 16
	.cfi_offset 6, -16
	movq	%rsp, %rbp
	.cfi_def_cfa_register 6
	subq	$16, %rsp
	movq	%rdi, -8(%rbp)
	movq	-8(%rbp), %rax
	movq	%rax, %rdi
	call	_ZSt3getILm0EJM10echoServerFvvES0_EERNSt13tuple_elementIXT_ESt5tupleIJDpT0_EEE4typeERS7_
	movq	%rax, %rdi
	call	_ZSt7forwardIOM10echoServerFvvEEOT_RNSt16remove_referenceIS4_E4typeE
	leave
	.cfi_def_cfa 7, 8
	ret
	.cfi_endproc
.LFE9835:
	.size	_ZSt3getILm0EJM10echoServerFvvES0_EEONSt13tuple_elementIXT_ESt5tupleIJDpT0_EEE4typeEOS7_, .-_ZSt3getILm0EJM10echoServerFvvES0_EEONSt13tuple_elementIXT_ESt5tupleIJDpT0_EEE4typeEOS7_
	.section	.text._ZSt3getILm1EJM10echoServerFvvES0_EERNSt13tuple_elementIXT_ESt5tupleIJDpT0_EEE4typeERS7_,"axG",@progbits,_ZSt3getILm1EJM10echoServerFvvES0_EERNSt13tuple_elementIXT_ESt5tupleIJDpT0_EEE4typeERS7_,comdat
	.weak	_ZSt3getILm1EJM10echoServerFvvES0_EERNSt13tuple_elementIXT_ESt5tupleIJDpT0_EEE4typeERS7_
	.type	_ZSt3getILm1EJM10echoServerFvvES0_EERNSt13tuple_elementIXT_ESt5tupleIJDpT0_EEE4typeERS7_, @function
_ZSt3getILm1EJM10echoServerFvvES0_EERNSt13tuple_elementIXT_ESt5tupleIJDpT0_EEE4typeERS7_:
.LFB9839:
	.cfi_startproc
	pushq	%rbp
	.cfi_def_cfa_offset 16
	.cfi_offset 6, -16
	movq	%rsp, %rbp
	.cfi_def_cfa_register 6
	subq	$16, %rsp
	movq	%rdi, -8(%rbp)
	movq	-8(%rbp), %rax
	movq	%rax, %rdi
	call	_ZSt12__get_helperILm1E10echoServerJEERT0_RSt11_Tuple_implIXT_EJS1_DpT1_EE
	leave
	.cfi_def_cfa 7, 8
	ret
	.cfi_endproc
.LFE9839:
	.size	_ZSt3getILm1EJM10echoServerFvvES0_EERNSt13tuple_elementIXT_ESt5tupleIJDpT0_EEE4typeERS7_, .-_ZSt3getILm1EJM10echoServerFvvES0_EERNSt13tuple_elementIXT_ESt5tupleIJDpT0_EEE4typeERS7_
	.section	.text._ZSt12__get_helperILm1E10echoServerJEERT0_RSt11_Tuple_implIXT_EJS1_DpT1_EE,"axG",@progbits,_ZSt12__get_helperILm1E10echoServerJEERT0_RSt11_Tuple_implIXT_EJS1_DpT1_EE,comdat
	.weak	_ZSt12__get_helperILm1E10echoServerJEERT0_RSt11_Tuple_implIXT_EJS1_DpT1_EE
	.type	_ZSt12__get_helperILm1E10echoServerJEERT0_RSt11_Tuple_implIXT_EJS1_DpT1_EE, @function
_ZSt12__get_helperILm1E10echoServerJEERT0_RSt11_Tuple_implIXT_EJS1_DpT1_EE:
.LFB9840:
	.cfi_startproc
	pushq	%rbp
	.cfi_def_cfa_offset 16
	.cfi_offset 6, -16
	movq	%rsp, %rbp
	.cfi_def_cfa_register 6
	subq	$16, %rsp
	movq	%rdi, -8(%rbp)
	movq	-8(%rbp), %rax
	movq	%rax, %rdi
	call	_ZNSt11_Tuple_implILm1EJ10echoServerEE7_M_headERS1_
	leave
	.cfi_def_cfa 7, 8
	ret
	.cfi_endproc
.LFE9840:
	.size	_ZSt12__get_helperILm1E10echoServerJEERT0_RSt11_Tuple_implIXT_EJS1_DpT1_EE, .-_ZSt12__get_helperILm1E10echoServerJEERT0_RSt11_Tuple_implIXT_EJS1_DpT1_EE
